; Disassembly of Arkanoid.sid
; Generated by SIDM2 for ASM annotation
; Title: Arkanoid
; Author: Martin Galway
; Load: $2000
; Init: $4000
; Play: $0000

$2000: 3a           NOP                 
$2001: 20 00 00     JSR  $0000          
$2004: c6 df        DEC  $df            
$2006: 00           BRK                 
$2007: 00           BRK                 
$2008: 01 02        ORA  ($02,x)        
$200a: 01 01        ORA  ($01,x)        
$200c: 01 05        ORA  ($05,x)        
$200e: 00           BRK                 
$200f: 00           BRK                 
$2010: 00           BRK                 
$2011: 00           BRK                 
$2012: 00           BRK                 
$2013: 00           BRK                 
$2014: 00           BRK                 
$2015: 00           BRK                 
$2016: 00           BRK                 
$2017: 00           BRK                 
$2018: 21 03        AND  ($03,x)        
$201a: 8a           TXA                 
$201b: 0f 5a 3a     SLO  $3a5a          
$201e: 20 c6 df     JSR  $dfc6          
l2021:
$2021: 00           BRK                 
$2022: 00           BRK                 
$2023: 3a           NOP                 
$2024: 20 00 00     JSR  z00            
$2027: 01 01        ORA  ($01,x)        
$2029: 01 02        ORA  ($02,x)        
$202b: 01 05        ORA  ($05,x)        
$202d: 00           BRK                 
$202e: 00           BRK                 
$202f: 00           BRK                 
$2030: 00           BRK                 
$2031: 00           BRK                 
$2032: 00           BRK                 
$2033: 00           BRK                 
$2034: 00           BRK                 
$2035: 00           BRK                 
$2036: 00           BRK                 
$2037: 21 03        AND  ($03,x)        
$2039: 8a           TXA                 
$203a: 0f 5a d8     SLO  $d85a          
$203d: 40           RTI                 
$203e: 9e 20 00     SHX  $0020,y        
$2041: 00           BRK                 
$2042: 62           JAM                 
$2043: df 00 00     DCP  z00,x          
$2046: 01 01        ORA  ($01,x)        
$2048: 01 01        ORA  ($01,x)        
$204a: 02           JAM                 
$204b: 05 00        ORA  z00            
$204d: 00           BRK                 
$204e: 00           BRK                 
$204f: 00           BRK                 
$2050: 00           BRK                 
$2051: 00           BRK                 
$2052: 00           BRK                 
$2053: 00           BRK                 
$2054: 00           BRK                 
$2055: 00           BRK                 
$2056: 21 03        AND  ($03,x)        
$2058: 8a           TXA                 
$2059: 0f 5a 3c     SLO  $3c5a          
$205c: 41 1f        EOR  ($1f,x)        
$205e: 18           CLC                 
l205f:
$205f: 00           BRK                 
$2060: 00           BRK                 
$2061: e1 e7        SBC  ($e7,x)        
$2063: 00           BRK                 
$2064: 00           BRK                 
$2065: 01 02        ORA  ($02,x)        
$2067: 01 01        ORA  ($01,x)        
$2069: 01 05        ORA  ($05,x)        
$206b: 00           BRK                 
$206c: 00           BRK                 
$206d: 00           BRK                 
$206e: 00           BRK                 
$206f: 00           BRK                 
$2070: 00           BRK                 
$2071: 00           BRK                 
$2072: 00           BRK                 
$2073: 00           BRK                 
$2074: 00           BRK                 
$2075: 21 03        AND  ($03,x)        
$2077: 8a           TXA                 
$2078: 0f 5a 3e     SLO  $3e5a          
$207b: 30 5e        BMI  l20db          
$207d: cf 00 00     DCP  z00            
$2080: a2 30        LDX  #$30           
$2082: 00           BRK                 
$2083: 00           BRK                 
$2084: 01 01        ORA  ($01,x)        
$2086: 01 02        ORA  ($02,x)        
$2088: 01 05        ORA  ($05,x)        
$208a: 00           BRK                 
$208b: 00           BRK                 
$208c: 00           BRK                 
$208d: 00           BRK                 
$208e: 00           BRK                 
$208f: 00           BRK                 
$2090: 00           BRK                 
$2091: 00           BRK                 
$2092: 00           BRK                 
$2093: 00           BRK                 
$2094: 21 03        AND  ($03,x)        
$2096: 8a           TXA                 
$2097: 0f 5a 44     SLO  $445a          
$209a: 61 06        ADC  ($06,x)        
$209c: 31 00        AND  (z00),y        
$209e: 00           BRK                 
$209f: fa           NOP                 
$20a0: ce 00 00     DEC  z00            
$20a3: 01 01        ORA  ($01,x)        
$20a5: 01 01        ORA  ($01,x)        
$20a7: 02           JAM                 
$20a8: 05 00        ORA  z00            
$20aa: 00           BRK                 
$20ab: 00           BRK                 
$20ac: 00           BRK                 
$20ad: 00           BRK                 
$20ae: 00           BRK                 
$20af: 00           BRK                 
$20b0: 00           BRK                 
$20b1: 00           BRK                 
$20b2: 00           BRK                 
$20b3: 21 03        AND  ($03,x)        
$20b5: 8a           TXA                 
$20b6: 0f 5a 0c     SLO  $0c5a          
$20b9: 62           JAM                 
$20ba: 04 00        NOP  z00            
$20bc: 00           BRK                 
$20bd: 00           BRK                 
$20be: 00           BRK                 
$20bf: 00           BRK                 
$20c0: 00           BRK                 
$20c1: 00           BRK                 
$20c2: ff 00 00     ISC  z00,x          
$20c5: 00           BRK                 
$20c6: 00           BRK                 
$20c7: 04 00        NOP  z00            
$20c9: 00           BRK                 
$20ca: 00           BRK                 
$20cb: 00           BRK                 
$20cc: 00           BRK                 
$20cd: 00           BRK                 
$20ce: 00           BRK                 
$20cf: 00           BRK                 
$20d0: 00           BRK                 
$20d1: 08           PHP                 
$20d2: 41 00        EOR  (z00,x)        
$20d4: f0 32        BEQ  l2108          
$20d6: 01 20        ORA  ($20,x)        
$20d8: 03 04        SLO  ($04,x)        
$20da: 00           BRK                 
l20db:
$20db: 00           BRK                 
$20dc: 00           BRK                 
$20dd: 00           BRK                 
$20de: 00           BRK                 
$20df: 00           BRK                 
$20e0: 00           BRK                 
$20e1: ff 00 00     ISC  z00,x          
$20e4: 00           BRK                 
$20e5: 00           BRK                 
$20e6: 04 00        NOP  z00            
$20e8: 00           BRK                 
$20e9: 00           BRK                 
$20ea: 00           BRK                 
$20eb: 00           BRK                 
$20ec: 00           BRK                 
$20ed: 00           BRK                 
$20ee: 00           BRK                 
$20ef: 00           BRK                 
$20f0: 08           PHP                 
$20f1: 41 00        EOR  (z00,x)        
$20f3: f0 32        BEQ  l2127          
$20f5: 01 2a        ORA  ($2a,x)        
$20f7: 03 04        SLO  ($04,x)        
l20f9:
$20f9: 00           BRK                 
$20fa: 00           BRK                 
$20fb: 00           BRK                 
$20fc: 00           BRK                 
$20fd: 00           BRK                 
$20fe: 00           BRK                 
$20ff: 00           BRK                 
$2100: ff 00 00     ISC  z00,x          
$2103: 00           BRK                 
$2104: 00           BRK                 
$2105: 04 00        NOP  z00            
$2107: 00           BRK                 
l2108:
$2108: 00           BRK                 
$2109: 00           BRK                 
$210a: 00           BRK                 
$210b: 00           BRK                 
$210c: 00           BRK                 
$210d: 00           BRK                 
$210e: 00           BRK                 
$210f: 08           PHP                 
l2110:
$2110: 41 00        EOR  (z00,x)        
$2112: f0 32        BEQ  l2146          
$2114: 01 34        ORA  ($34,x)        
$2116: 03 f0        SLO  ($f0,x)        
$2118: d8           CLD                 
$2119: 18           CLC                 
$211a: fc 9c ff     NOP  $ff9c,x        
$211d: 00           BRK                 
$211e: 00           BRK                 
$211f: 04 05        NOP  $05            
$2121: 0a           ASL                 
$2122: 00           BRK                 
$2123: 00           BRK                 
$2124: 85 00        STA  z00            
$2126: 00           BRK                 
l2127:
$2127: 00           BRK                 
$2128: 00           BRK                 
$2129: 00           BRK                 
$212a: 00           BRK                 
$212b: 00           BRK                 
$212c: 00           BRK                 
$212d: 00           BRK                 
$212e: 08           PHP                 
l212f:
$212f: 41 09        EOR  ($09,x)        
$2131: b9 1e 32     LDA  $321e,y        
$2134: 50 c3        BVC  l20f9          
$2136: f0 d8        BEQ  l2110          
$2138: 18           CLC                 
$2139: fc 9c ff     NOP  $ff9c,x        
$213c: 7c 15 04     NOP  $0415,x        
$213f: 05 0a        ORA  $0a            
$2141: 00           BRK                 
$2142: 0a           ASL                 
$2143: 87 00        SAX  z00            
$2145: 00           BRK                 
l2146:
$2146: 00           BRK                 
$2147: 00           BRK                 
$2148: 00           BRK                 
$2149: 00           BRK                 
$214a: 00           BRK                 
$214b: 00           BRK                 
$214c: 00           BRK                 
$214d: 08           PHP                 
$214e: 43 09        SRE  ($09,x)        
$2150: b9 1e 32     LDA  $321e,y        
$2153: 01 00        ORA  (z00,x)        
$2155: f0 d8        BEQ  l212f          
$2157: 18           CLC                 
$2158: fc 9c ff     NOP  $ff9c,x        
$215b: b8           CLV                 
$215c: 0b 04        ANC  #$04           
$215e: 05 0a        ORA  $0a            
$2160: 00           BRK                 
$2161: 14 87        NOP  $87,x          
$2163: 00           BRK                 
$2164: 00           BRK                 
$2165: 00           BRK                 
$2166: 00           BRK                 
$2167: 00           BRK                 
$2168: 00           BRK                 
$2169: 00           BRK                 
$216a: 00           BRK                 
$216b: 00           BRK                 
$216c: 08           PHP                 
$216d: 41 09        EOR  ($09,x)        
$216f: b9 1e 32     LDA  $321e,y        
$2172: 01 00        ORA  (z00,x)        
$2174: 74 40        NOP  $40,x          
$2176: 00           BRK                 
$2177: 00           BRK                 
$2178: 8c bf 00     STY  $00bf          
$217b: 00           BRK                 
$217c: 01 02        ORA  ($02,x)        
$217e: 01 01        ORA  ($01,x)        
$2180: 01 05        ORA  ($05,x)        
$2182: 00           BRK                 
$2183: 00           BRK                 
$2184: 00           BRK                 
$2185: 00           BRK                 
$2186: 00           BRK                 
$2187: 00           BRK                 
$2188: 00           BRK                 
$2189: 00           BRK                 
$218a: 00           BRK                 
$218b: 00           BRK                 
$218c: 21 03        AND  ($03,x)        
$218e: 8a           TXA                 
$218f: 0f 5a 74     SLO  $745a          
$2192: 40           RTI                 
$2193: 8c bf 00     STY  $00bf          
$2196: 00           BRK                 
$2197: 74 40        NOP  $40,x          
$2199: 00           BRK                 
$219a: 00           BRK                 
$219b: 01 01        ORA  ($01,x)        
$219d: 01 02        ORA  ($02,x)        
$219f: 01 05        ORA  ($05,x)        
$21a1: 00           BRK                 
$21a2: 00           BRK                 
$21a3: 00           BRK                 
$21a4: 00           BRK                 
$21a5: 00           BRK                 
$21a6: 00           BRK                 
$21a7: 00           BRK                 
$21a8: 00           BRK                 
$21a9: 00           BRK                 
$21aa: 00           BRK                 
$21ab: 21 03        AND  ($03,x)        
$21ad: 8a           TXA                 
$21ae: 0f 5a d8     SLO  $d85a          
$21b1: 40           RTI                 
$21b2: 3c 41 00     NOP  $0041,x        
$21b5: 00           BRK                 
$21b6: c4 be        CPY  $be            
$21b8: 00           BRK                 
$21b9: 00           BRK                 
$21ba: 01 01        ORA  ($01,x)        
$21bc: 01 01        ORA  ($01,x)        
$21be: 02           JAM                 
$21bf: 05 00        ORA  z00            
$21c1: 00           BRK                 
$21c2: 00           BRK                 
$21c3: 00           BRK                 
$21c4: 00           BRK                 
$21c5: 00           BRK                 
$21c6: 00           BRK                 
$21c7: 00           BRK                 
$21c8: 00           BRK                 
$21c9: 00           BRK                 
$21ca: 21 03        AND  ($03,x)        
$21cc: 8a           TXA                 
$21cd: 0f 5a 78     SLO  $785a          
$21d0: 82 e2        NOP  #$e2           
$21d2: 04 38        NOP  $38            
$21d4: cd 00 00     CMP  z00            
$21d7: 00           BRK                 
$21d8: 00           BRK                 
$21d9: 09 01        ORA  #$01           
$21db: 00           BRK                 
$21dc: 00           BRK                 
$21dd: 00           BRK                 
$21de: 05 00        ORA  z00            
$21e0: 00           BRK                 
$21e1: 00           BRK                 
$21e2: 00           BRK                 
$21e3: 00           BRK                 
$21e4: 00           BRK                 
$21e5: 00           BRK                 
$21e6: 00           BRK                 
$21e7: 00           BRK                 
$21e8: 00           BRK                 
$21e9: 21 15        AND  ($15,x)        
$21eb: 9b 14 46     TAS  $4614,y        
$21ee: 3a           NOP                 
$21ef: 20 36 f7     JSR  $f736          
$21f2: 38           SEC                 
$21f3: 4a           LSR                 
$21f4: 00           BRK                 
$21f5: 00           BRK                 
$21f6: 00           BRK                 
$21f7: 00           BRK                 
$21f8: 09 01        ORA  #$01           
$21fa: 01 00        ORA  (z00,x)        
$21fc: 00           BRK                 
$21fd: 05 00        ORA  z00            
$21ff: 00           BRK                 
$2200: 00           BRK                 
$2201: 00           BRK                 
$2202: 00           BRK                 
$2203: 00           BRK                 
$2204: 00           BRK                 
$2205: 00           BRK                 
$2206: 00           BRK                 
$2207: 00           BRK                 
$2208: 21 15        AND  ($15,x)        
$220a: 9b 14 46     TAS  $4614,y        
$220d: d8           CLD                 
$220e: 40           RTI                 
$220f: 16 0d        ASL  $0d,x          
$2211: 88           DEY                 
$2212: 96 00        STX  z00,y          
$2214: 00           BRK                 
$2215: 00           BRK                 
$2216: 00           BRK                 
$2217: 07 01        SLO  $01            
$2219: 00           BRK                 
$221a: 00           BRK                 
$221b: 00           BRK                 
$221c: 05 00        ORA  z00            
$221e: 00           BRK                 
$221f: 00           BRK                 
$2220: 00           BRK                 
$2221: 00           BRK                 
$2222: 00           BRK                 
$2223: 00           BRK                 
$2224: 00           BRK                 
$2225: 00           BRK                 
$2226: 00           BRK                 
$2227: 21 15        AND  ($15,x)        
$2229: 9b 14 46     TAS  $4614,y        
$222c: 3c 41 90     NOP  $9041,x        
$222f: e8           INX                 
$2230: dd ff 0a     CMP  $0aff,x        
$2233: 00           BRK                 
$2234: 00           BRK                 
$2235: 00           BRK                 
$2236: 0a           ASL                 
$2237: 50 ff        BVC  l2238          
$2239: 00           BRK                 
$223a: 00           BRK                 
$223b: 04 ff        NOP  $ff            
$223d: 00           BRK                 
$223e: 00           BRK                 
$223f: 00           BRK                 
$2240: 08           PHP                 
$2241: 00           BRK                 
$2242: 00           BRK                 
$2243: 00           BRK                 
$2244: 00           BRK                 
$2245: 08           PHP                 
$2246: 41 19        EOR  ($19,x)        
$2248: bb 28 c8     LAS  $c828,y        
$224b: 0c f8 90     NOP  $90f8          
$224e: e8           INX                 
$224f: dd ff 0a     CMP  $0aff,x        
$2252: 00           BRK                 
$2253: 00           BRK                 
$2254: 00           BRK                 
$2255: 0a           ASL                 
l2256:
$2256: 50 ff        BVC  l2257          
$2258: 00           BRK                 
$2259: 04 04        NOP  $04            
$225b: ff 00 00     ISC  z00,x          
$225e: 00           BRK                 
$225f: 08           PHP                 
$2260: 00           BRK                 
$2261: 00           BRK                 
$2262: 00           BRK                 
$2263: 00           BRK                 
$2264: 08           PHP                 
$2265: 41 19        EOR  ($19,x)        
$2267: bb 28 c8     LAS  $c828,y        
$226a: 00           BRK                 
$226b: fa           NOP                 
$226c: 90 e8        BCC  l2256          
$226e: dd ff 0a     CMP  $0aff,x        
$2271: 00           BRK                 
$2272: 00           BRK                 
$2273: 00           BRK                 
$2274: 0a           ASL                 
$2275: 50 ff        BVC  l2276          
$2277: 00           BRK                 
$2278: 08           PHP                 
$2279: 04 ff        NOP  $ff            
$227b: 00           BRK                 
$227c: 00           BRK                 
$227d: 00           BRK                 
$227e: 08           PHP                 
$227f: 00           BRK                 
$2280: 00           BRK                 
$2281: 00           BRK                 
$2282: 00           BRK                 
$2283: 08           PHP                 
$2284: 41 19        EOR  ($19,x)        
$2286: bb 28 c8     LAS  $c828,y        
$2289: f4 fb        NOP  $fb,x          
$228b: 3a           NOP                 
$228c: 20 00 00     JSR  z00            
$228f: c6 df        DEC  $df            
$2291: 00           BRK                 
$2292: 00           BRK                 
$2293: 01 02        ORA  ($02,x)        
$2295: 01 01        ORA  ($01,x)        
$2297: 01 05        ORA  ($05,x)        
$2299: 00           BRK                 
$229a: 00           BRK                 
$229b: 00           BRK                 
$229c: 00           BRK                 
$229d: 00           BRK                 
$229e: 00           BRK                 
$229f: 00           BRK                 
$22a0: 00           BRK                 
$22a1: 00           BRK                 
$22a2: 00           BRK                 
$22a3: 21 02        AND  ($02,x)        
$22a5: a6 05        LDX  $05            
$22a7: 08           PHP                 
$22a8: 3a           NOP                 
$22a9: 20 c6 df     JSR  ldfc6          
$22ac: 00           BRK                 
$22ad: 00           BRK                 
$22ae: 3a           NOP                 
$22af: 20 00 00     JSR  z00            
$22b2: 01 01        ORA  ($01,x)        
$22b4: 01 02        ORA  ($02,x)        
$22b6: 01 05        ORA  ($05,x)        
$22b8: 00           BRK                 
$22b9: 00           BRK                 
$22ba: 00           BRK                 
$22bb: 00           BRK                 
$22bc: 00           BRK                 
$22bd: 00           BRK                 
$22be: 00           BRK                 
$22bf: 00           BRK                 
$22c0: 00           BRK                 
$22c1: 00           BRK                 
$22c2: 21 02        AND  ($02,x)        
l22c4:
$22c4: a6 05        LDX  $05            
$22c6: 08           PHP                 
$22c7: d8           CLD                 
$22c8: 40           RTI                 
$22c9: 9e 20 00     SHX  $0020,y        
$22cc: 00           BRK                 
$22cd: 62           JAM                 
$22ce: df 00 00     DCP  z00,x          
$22d1: 01 01        ORA  ($01,x)        
$22d3: 01 01        ORA  ($01,x)        
$22d5: 02           JAM                 
$22d6: 05 00        ORA  z00            
$22d8: 00           BRK                 
$22d9: 00           BRK                 
$22da: 00           BRK                 
$22db: 00           BRK                 
$22dc: 00           BRK                 
$22dd: 00           BRK                 
$22de: 00           BRK                 
$22df: 00           BRK                 
$22e0: 00           BRK                 
$22e1: 21 02        AND  ($02,x)        
$22e3: a6 05        LDX  $05            
$22e5: 08           PHP                 
$22e6: 3c 41 e2     NOP  $e241,x        
$22e9: 04 08        NOP  $08            
$22eb: d5 00        CMP  z00,x          
$22ed: 00           BRK                 
$22ee: 00           BRK                 
$22ef: 00           BRK                 
$22f0: 0a           ASL                 
$22f1: 01 00        ORA  (z00,x)        
$22f3: 00           BRK                 
$22f4: 01 05        ORA  ($05,x)        
$22f6: 00           BRK                 
$22f7: 00           BRK                 
$22f8: 00           BRK                 
$22f9: 00           BRK                 
$22fa: 00           BRK                 
$22fb: 00           BRK                 
$22fc: 00           BRK                 
$22fd: 00           BRK                 
$22fe: 00           BRK                 
$22ff: 00           BRK                 
$2300: 21 15        AND  ($15,x)        
$2302: 9b 14 8c     TAS  $8c14,y        
$2305: 3a           NOP                 
$2306: 20 36 f7     JSR  lf736          
$2309: 08           PHP                 
$230a: 52           JAM                 
$230b: 00           BRK                 
$230c: 00           BRK                 
$230d: 00           BRK                 
$230e: 00           BRK                 
$230f: 09 01        ORA  #$01           
$2311: 00           BRK                 
$2312: 00           BRK                 
$2313: 02           JAM                 
$2314: 05 00        ORA  z00            
$2316: 00           BRK                 
$2317: 00           BRK                 
$2318: 00           BRK                 
$2319: 00           BRK                 
$231a: 00           BRK                 
$231b: 00           BRK                 
$231c: 00           BRK                 
$231d: 00           BRK                 
$231e: 00           BRK                 
$231f: 21 15        AND  ($15,x)        
$2321: 9b 14 8c     TAS  $8c14,y        
$2324: d8           CLD                 
$2325: 40           RTI                 
$2326: 16 0d        ASL  $0d,x          
$2328: 70 9a        BVS  l22c4          
$232a: 00           BRK                 
$232b: 00           BRK                 
$232c: 00           BRK                 
$232d: 00           BRK                 
$232e: 08           PHP                 
$232f: 01 00        ORA  (z00,x)        
$2331: 00           BRK                 
$2332: 03 05        SLO  ($05,x)        
$2334: 00           BRK                 
$2335: 00           BRK                 
$2336: 00           BRK                 
$2337: 00           BRK                 
$2338: 00           BRK                 
$2339: 00           BRK                 
$233a: 00           BRK                 
$233b: 00           BRK                 
$233c: 00           BRK                 
$233d: 00           BRK                 
$233e: 21 15        AND  ($15,x)        
$2340: 9b 14 8c     TAS  $8c14,y        
$2343: 3c 41 90     NOP  $9041,x        
$2346: e8           INX                 
$2347: ce ff 30     DEC  $30ff          
$234a: f2           JAM                 
$234b: 00           BRK                 
$234c: 00           BRK                 
$234d: 0a           ASL                 
l234e:
$234e: 28           PLP                 
$234f: 01 00        ORA  (z00,x)        
$2351: 00           BRK                 
$2352: 05 ff        ORA  $ff            
$2354: 00           BRK                 
$2355: 00           BRK                 
$2356: 00           BRK                 
$2357: 08           PHP                 
$2358: 00           BRK                 
$2359: 00           BRK                 
$235a: 00           BRK                 
$235b: 00           BRK                 
$235c: 08           PHP                 
$235d: 41 19        EOR  ($19,x)        
$235f: bb 28 8c     LAS  $8c28,y        
$2362: 31 f2        AND  ($f2),y        
$2364: 90 e8        BCC  l234e          
$2366: ce ff 30     DEC  $30ff          
$2369: f2           JAM                 
$236a: 00           BRK                 
$236b: 00           BRK                 
$236c: 0a           ASL                 
$236d: 28           PLP                 
$236e: 01 00        ORA  (z00,x)        
$2370: 02           JAM                 
$2371: 05 ff        ORA  $ff            
$2373: 00           BRK                 
$2374: 00           BRK                 
$2375: 00           BRK                 
$2376: 08           PHP                 
$2377: 00           BRK                 
$2378: 00           BRK                 
$2379: 00           BRK                 
$237a: 00           BRK                 
$237b: 08           PHP                 
$237c: 41 19        EOR  ($19,x)        
$237e: bb 28 8c     LAS  $8c28,y        
$2381: 19 f6 90     ORA  $90f6,y        
$2384: e8           INX                 
$2385: ce ff 30     DEC  $30ff          
$2388: f2           JAM                 
$2389: 00           BRK                 
$238a: 00           BRK                 
$238b: 0a           ASL                 
$238c: 28           PLP                 
$238d: 01 00        ORA  (z00,x)        
$238f: 04 05        NOP  $05            
$2391: ff 00 00     ISC  z00,x          
$2394: 00           BRK                 
$2395: 08           PHP                 
$2396: 00           BRK                 
$2397: 00           BRK                 
$2398: 00           BRK                 
$2399: 00           BRK                 
$239a: 08           PHP                 
$239b: 41 19        EOR  ($19,x)        
$239d: bb 28 8c     LAS  $8c28,y        
$23a0: 01 fa        ORA  ($fa,x)        
$23a2: e2 04        NOP  #$04           
$23a4: 38           SEC                 
$23a5: cd 00 00     CMP  z00            
$23a8: 00           BRK                 
$23a9: 00           BRK                 
$23aa: 09 02        ORA  #$02           
$23ac: 01 00        ORA  (z00,x)        
$23ae: 00           BRK                 
$23af: 05 00        ORA  z00            
$23b1: 00           BRK                 
$23b2: 00           BRK                 
$23b3: 00           BRK                 
$23b4: 00           BRK                 
$23b5: 00           BRK                 
$23b6: 00           BRK                 
$23b7: 00           BRK                 
$23b8: 00           BRK                 
$23b9: 00           BRK                 
$23ba: 15 15        ORA  $15,x          
$23bc: e9 0a        SBC  #$0a           
$23be: 5a           NOP                 
$23bf: 3a           NOP                 
$23c0: 20 36 f7     JSR  lf736          
$23c3: 38           SEC                 
$23c4: 4a           LSR                 
$23c5: 00           BRK                 
$23c6: 00           BRK                 
$23c7: 00           BRK                 
$23c8: 00           BRK                 
$23c9: 01 02        ORA  ($02,x)        
$23cb: 09 00        ORA  #$00           
$23cd: 05 05        ORA  $05            
$23cf: 00           BRK                 
$23d0: 00           BRK                 
$23d1: 00           BRK                 
$23d2: 00           BRK                 
$23d3: 00           BRK                 
$23d4: 00           BRK                 
$23d5: 00           BRK                 
$23d6: 00           BRK                 
$23d7: 00           BRK                 
$23d8: 00           BRK                 
$23d9: 15 15        ORA  $15,x          
$23db: 99 0a 5a     STA  $5a0a,y        
$23de: d8           CLD                 
$23df: 40           RTI                 
$23e0: 16 0d        ASL  $0d,x          
$23e2: 88           DEY                 
$23e3: 96 00        STX  z00,y          
$23e5: 00           BRK                 
$23e6: 00           BRK                 
$23e7: 00           BRK                 
$23e8: 02           JAM                 
$23e9: 07 01        SLO  $01            
$23eb: 00           BRK                 
$23ec: 00           BRK                 
$23ed: 05 00        ORA  z00            
$23ef: 00           BRK                 
$23f0: 00           BRK                 
$23f1: 00           BRK                 
$23f2: 00           BRK                 
$23f3: 00           BRK                 
$23f4: 00           BRK                 
$23f5: 00           BRK                 
$23f6: 00           BRK                 
$23f7: 00           BRK                 
$23f8: 15 15        ORA  $15,x          
$23fa: 99 0a 5a     STA  $5a0a,y        
$23fd: 3c 41 1e     NOP  $1e41,x        
$2400: fb f8 2a     ISC  $2af8,y        
$2403: e8           INX                 
$2404: 03 08        SLO  ($08,x)        
$2406: d5 0a        CMP  $0a,x          
$2408: 01 0a        ORA  ($0a,x)        
$240a: 01 01        ORA  ($01,x)        
$240c: 05 00        ORA  z00            
$240e: 00           BRK                 
$240f: 00           BRK                 
$2410: 00           BRK                 
$2411: 00           BRK                 
$2412: 00           BRK                 
$2413: 00           BRK                 
$2414: 00           BRK                 
$2415: 00           BRK                 
$2416: 08           PHP                 
$2417: 41 cc        EOR  ($cc,x)        
$2419: fc fe fe     NOP  $fefe,x        
$241c: 10 27        BPL  l2445          
$241e: ca           DEX                 
$241f: 08           PHP                 
$2420: f8           SED                 
$2421: ad 00 00     LDA  z00            
$2424: 00           BRK                 
$2425: 00           BRK                 
$2426: 09 01        ORA  #$01           
$2428: 00           BRK                 
$2429: 00           BRK                 
$242a: 02           JAM                 
$242b: 05 00        ORA  z00            
$242d: 00           BRK                 
$242e: 00           BRK                 
$242f: 00           BRK                 
$2430: 00           BRK                 
$2431: 00           BRK                 
$2432: 00           BRK                 
$2433: 00           BRK                 
$2434: 00           BRK                 
$2435: 08           PHP                 
$2436: 41 cc        EOR  ($cc,x)        
$2438: fc fe fe     NOP  $fefe,x        
$243b: ce 56 ea     DEC  $ea56          
$243e: f2           JAM                 
$243f: 90 65        BCC  l24a6          
$2441: 00           BRK                 
$2442: 00           BRK                 
$2443: 00           BRK                 
$2444: 00           BRK                 
l2445:
$2445: 08           PHP                 
$2446: 01 00        ORA  (z00,x)        
$2448: 00           BRK                 
$2449: 03 05        SLO  ($05,x)        
$244b: 00           BRK                 
$244c: 00           BRK                 
$244d: 00           BRK                 
$244e: 00           BRK                 
$244f: 00           BRK                 
$2450: 00           BRK                 
$2451: 00           BRK                 
$2452: 00           BRK                 
$2453: 00           BRK                 
$2454: 08           PHP                 
$2455: 41 cc        EOR  ($cc,x)        
$2457: fc fe fe     NOP  $fefe,x        
$245a: 07 87        SLO  $87            
$245c: 14 00        NOP  z00,x          
$245e: ec ff 14     CPX  $14ff          
$2461: 00           BRK                 
$2462: 00           BRK                 
$2463: 00           BRK                 
$2464: 03 06        SLO  ($06,x)        
$2466: 03 00        SLO  (z00,x)        
$2468: 1e 05 32     ASL  $3205,x        
$246b: 32           JAM                 
$246c: 0a           ASL                 
$246d: 05 0a        ORA  $0a            
$246f: 00           BRK                 
$2470: f6 ff        INC  $ff,x          
$2472: 00           BRK                 
$2473: 08           PHP                 
$2474: 41 14        EOR  ($14,x)        
$2476: c8           INY                 
$2477: ff fa 14     ISC  $14fa,x        
$247a: 00           BRK                 
$247b: ec ff 14     CPX  $14ff          
$247e: 00           BRK                 
$247f: 00           BRK                 
$2480: 00           BRK                 
$2481: 03 06        SLO  ($06,x)        
$2483: 03 00        SLO  (z00,x)        
$2485: 0a           ASL                 
$2486: 05 32        ORA  $32            
$2488: 32           JAM                 
$2489: 14 05        NOP  $05,x          
$248b: 0a           ASL                 
$248c: 00           BRK                 
$248d: f6 ff        INC  $ff,x          
$248f: 00           BRK                 
$2490: 08           PHP                 
$2491: 41 14        EOR  ($14,x)        
$2493: c4 ff        CPY  $ff            
$2495: 05 14        ORA  $14            
$2497: 00           BRK                 
$2498: ec ff 14     CPX  $14ff          
$249b: 00           BRK                 
$249c: 1c 00 03     NOP  $0300,x        
$249f: 06 03        ASL  $03            
$24a1: 00           BRK                 
$24a2: 28           PLP                 
$24a3: 07 32        SLO  $32            
$24a5: 32           JAM                 
l24a6:
$24a6: 28           PLP                 
$24a7: 05 0a        ORA  $0a            
$24a9: 00           BRK                 
$24aa: f6 ff        INC  $ff,x          
$24ac: 00           BRK                 
$24ad: 08           PHP                 
$24ae: 41 14        EOR  ($14,x)        
$24b0: c8           INY                 
$24b1: ff 32 4d     ISC  $4d32,x        
$24b4: 01 d3        ORA  ($d3,x)        
$24b6: ff fb ff     ISC  $fffb,x        
$24b9: ff ff 03     ISC  $03ff,x        
$24bc: 14 0a        NOP  $0a,x          
$24be: 32           JAM                 
$24bf: 00           BRK                 
$24c0: 04 01        NOP  $01            
$24c2: 00           BRK                 
$24c3: 4d 01 d3     EOR  $d301          
$24c6: ff 14 00     ISC  $0014,x        
$24c9: ec ff 03     CPX  $03ff          
$24cc: 14 32        NOP  $32,x          
$24ce: 32           JAM                 
$24cf: 00           BRK                 
$24d0: 00           BRK                 
$24d1: 01 00        ORA  (z00,x)        
$24d3: d0 02        BNE  l24d7          
$24d5: 00           BRK                 
$24d6: 00           BRK                 
l24d7:
$24d7: 00           BRK                 
$24d8: 1f 14 00     SLO  $0014,x        
$24db: ec ff 14     CPX  $14ff          
$24de: 00           BRK                 
$24df: 00           BRK                 
$24e0: 00           BRK                 
$24e1: 03 06        SLO  ($06,x)        
$24e3: 03 00        SLO  (z00,x)        
$24e5: 00           BRK                 
$24e6: 05 32        ORA  $32            
$24e8: 32           JAM                 
$24e9: 00           BRK                 
$24ea: 05 0a        ORA  $0a            
$24ec: 00           BRK                 
$24ed: f6 ff        INC  $ff,x          
$24ef: 00           BRK                 
$24f0: 08           PHP                 
$24f1: d4 05        NOP  $05,x          
$24f3: 41 ff        EOR  ($ff,x)        
$24f5: fa           NOP                 
$24f6: 00           BRK                 
$24f7: 05 03        ORA  $03            
$24f9: 00           BRK                 
$24fa: 2a           ROL                 
$24fb: 32           JAM                 
$24fc: 14 00        NOP  z00,x          
$24fe: ec ff 14     CPX  $14ff          
$2501: 00           BRK                 
$2502: 00           BRK                 
$2503: 00           BRK                 
$2504: 03 06        SLO  ($06,x)        
$2506: 03 00        SLO  (z00,x)        
$2508: 00           BRK                 
$2509: 05 32        ORA  $32            
$250b: 32           JAM                 
$250c: 00           BRK                 
$250d: 05 0a        ORA  $0a            
$250f: 00           BRK                 
$2510: f6 ff        INC  $ff,x          
$2512: 00           BRK                 
$2513: 08           PHP                 
$2514: d4 05        NOP  $05,x          
$2516: 41 ff        EOR  ($ff,x)        
$2518: 05 00        ORA  z00            
$251a: 00           BRK                 
$251b: 00           BRK                 
$251c: 00           BRK                 
$251d: 00           BRK                 
$251e: 02           JAM                 
$251f: 14 00        NOP  z00,x          
$2521: ec ff 14     CPX  $14ff          
$2524: 00           BRK                 
$2525: 1c 00 03     NOP  $0300,x        
$2528: 06 03        ASL  $03            
$252a: 00           BRK                 
$252b: 00           BRK                 
$252c: 07 32        SLO  $32            
$252e: 32           JAM                 
$252f: 00           BRK                 
$2530: 05 0a        ORA  $0a            
l2532:
$2532: 00           BRK                 
$2533: f6 ff        INC  $ff,x          
$2535: 00           BRK                 
$2536: 08           PHP                 
$2537: 75 01        ADC  $01,x          
$2539: 41 ff        EOR  ($ff,x)        
$253b: 32           JAM                 
$253c: 00           BRK                 
$253d: 00           BRK                 
$253e: 02           JAM                 
$253f: 00           BRK                 
$2540: 20 32 ff     JSR  $ff32          
$2543: b4 04        LDY  $04,x          
$2545: 01 01        ORA  ($01,x)        
$2547: 01 ff        ORA  ($ff,x)        
$2549: fe 04 08     INC  $0804,x        
$254c: 0c 10 14     NOP  $1410          
$254f: 18           CLC                 
$2550: 1c 20 24     NOP  $2420,x        
$2553: 28           PLP                 
$2554: 2c 30 34     BIT  $3430          
$2557: 38           SEC                 
$2558: 3c 40 44     NOP  $4440,x        
$255b: 48           PHA                 
$255c: 4c 50 54     JMP  $5450          
$255f: 58           CLI                 
$2560: 5c 60 64     NOP  $6460,x        
$2563: 68           PLA                 
$2564: 6c 70 74     JMP  ($7470)        
$2567: 78           SEI                 
$2568: 7c 80 02     NOP  $0280,x        
$256b: 09 10        ORA  #$10           
$256d: 00           BRK                 
$256e: 1d 3a 17     ORA  $173a,x        
$2571: 3a           NOP                 
$2572: 5d 17 28     EOR  $2817,x        
$2575: 3a           NOP                 
$2576: 4c 60 75     JMP  $7560          
$2579: 8b a3        XAA  #$a3           
$257b: bc d6 f2     LDY  $f2d6,x        
$257e: 10 2f        BPL  l25af          
$2580: 50 73        BVC  l25f5          
$2582: 99 c0 ea     STA  $eac0,y        
$2585: 16 45        ASL  $45,x          
$2587: 77 ac        RRA  $ac,x          
$2589: e4 1f        CPX  $1f            
$258b: 5e a0 e7     LSR  $e7a0,x        
$258e: 32           JAM                 
$258f: 80 d4        NOP  #$d4           
$2591: 2d 8b ee     AND  $ee8b          
$2594: 58           CLI                 
$2595: c8           INY                 
$2596: 3e bc 41     ROL  $41bc,x        
$2599: cd 63 01     CMP  $0163          
$259c: a8           TAY                 
$259d: 5a           NOP                 
$259e: 16 dd        ASL  $dd,x          
$25a0: b0 90        BCS  l2532          
$25a2: 7c 77 81     NOP  $8177,x        
$25a5: 9b c5 02     TAS  $02c5,y        
$25a8: 51 b4        EOR  ($b4),y        
$25aa: 2c ba 60     BIT  $60ba          
$25ad: 1f f9 ef     SLO  $eff9,x        
$25b0: 03 36        SLO  ($36,x)        
$25b2: 8b 03        XAA  #$03           
$25b4: a1 67        LDA  ($67,x)        
$25b6: 57 73        SRE  $73,x          
$25b8: c0 3e        CPY  #$3e           
$25ba: f1 de        SBC  ($de),y        
$25bc: 05 6c        ORA  $6c            
$25be: 16 06        ASL  $06,x          
$25c0: 43 ce        SRE  ($ce,x)        
$25c2: ae 00 01     LDX  $0100          
$25c5: 01 01        ORA  ($01,x)        
$25c7: 01 01        ORA  ($01,x)        
$25c9: 01 01        ORA  ($01,x)        
$25cb: 01 01        ORA  ($01,x)        
$25cd: 01 01        ORA  ($01,x)        
$25cf: 02           JAM                 
$25d0: 02           JAM                 
$25d1: 02           JAM                 
$25d2: 02           JAM                 
$25d3: 02           JAM                 
$25d4: 02           JAM                 
$25d5: 02           JAM                 
$25d6: 03 03        SLO  ($03,x)        
$25d8: 03 03        SLO  ($03,x)        
$25da: 03 04        SLO  ($04,x)        
$25dc: 04 04        NOP  $04            
$25de: 04 05        NOP  $05            
$25e0: 05 05        ORA  $05            
$25e2: 06 06        ASL  $06            
$25e4: 06 07        ASL  $07            
$25e6: 07 08        SLO  $08            
$25e8: 08           PHP                 
$25e9: 09 09        ORA  #$09           
$25eb: 0a           ASL                 
$25ec: 0b 0b        ANC  #$0b           
$25ee: 0c 0d 0d     NOP  $0d0d          
$25f1: 0e 0f 10     ASL  $100f          
$25f4: 11 12        ORA  ($12),y        
$25f6: 13 14        SLO  ($14),y        
$25f8: 16 17        ASL  $17,x          
$25fa: 18           CLC                 
$25fb: 1a           NOP                 
$25fc: 1b 1d 1f     SLO  $1f1d,y        
$25ff: 20 22 25     JSR  $2522          
$2602: 27 29        RLA  $29            
$2604: 2c 2e 31     BIT  $312e          
$2607: 34 37        NOP  $37,x          
$2609: 3a           NOP                 
$260a: 3e 41 45     ROL  $4541,x        
$260d: 4a           LSR                 
$260e: 4e 53 58     LSR  $5853          
$2611: 5d 62 68     EOR  $6862,x        
$2614: 00           BRK                 
$2615: 20 15 2c     JSR  $2c15          
$2618: 20 6c 2d     JSR  $2d6c          
$261b: 20 c5 2e     JSR  $2ec5          
$261e: 20 22 30     JSR  $3022          
$2621: 20 60 31     JSR  $3160          
$2624: 20 d2 32     JSR  $32d2          
$2627: 20 5d 2b     JSR  $2b5d          
$262a: 60           RTS                 
$262b: b9 2b 34     LDA  $342b,y        
$262e: 8d 44 25     STA  $2544          
$2631: 29 0f        AND  #$0f           
$2633: 8d 86 26     STA  $2686          
$2636: a2 02        LDX  #$02           
$2638: 8e 48 25     STX  $2548          
$263b: a2 04        LDX  #$04           
$263d: 8e 49 25     STX  $2549          
$2640: 88           DEY                 
l2641:
$2641: b9 2a 34     LDA  $342a,y        
$2644: 19 2b 34     ORA  $342b,y        
$2647: f0 2c        BEQ  l2675          
$2649: ae 49 25     LDX  $2549          
$264c: b9 2a 34     LDA  $342a,y        
$264f: 95 e0        STA  $e0,x          
$2651: b9 2b 34     LDA  $342b,y        
$2654: 95 e1        STA  $e1,x          
$2656: 84 fd        STY  $fd            
$2658: ae 48 25     LDX  $2548          
$265b: bc 6d 25     LDY  $256d,x        
$265e: a9 00        LDA  #$00           
$2660: 95 ec        STA  $ec,x          
$2662: 99 69 24     STA  $2469,y        
$2665: 99 6d 24     STA  $246d,y        
$2668: a9 07        LDA  #$07           
$266a: 95 e9        STA  $e9,x          
$266c: a9 01        LDA  #$01           
$266e: 95 e6        STA  $e6,x          
$2670: 9d 45 25     STA  $2545,x        
$2673: a4 fd        LDY  $fd            
l2675:
$2675: 88           DEY                 
$2676: 88           DEY                 
$2677: ce 49 25     DEC  $2549          
$267a: ce 49 25     DEC  $2549          
$267d: ce 48 25     DEC  $2548          
$2680: 10 bf        BPL  l2641          
$2682: 18           CLC                 
$2683: a9 00        LDA  #$00           
l2685:
$2685: 69 04        ADC  #$04           
$2687: 9d 4a 25     STA  $254a,x        
$268a: e8           INX                 
$268b: e0 20        CPX  #$20           
$268d: 90 f6        BCC  l2685          
$268f: 60           RTS                 
$2690: a2 16        LDX  #$16           
l2692:
$2692: a9 08        LDA  #$08           
$2694: 9d 00 d4     STA  $d400,x        
$2697: a9 00        LDA  #$00           
$2699: 9d 00 d4     STA  $d400,x        
$269c: ca           DEX                 
$269d: 10 f3        BPL  l2692          
$269f: 8d f5 24     STA  $24f5          
$26a2: 8d 18 25     STA  $2518          
$26a5: 8d 3b 25     STA  $253b          
$26a8: 8d d0 24     STA  $24d0          
$26ab: 8d 45 25     STA  $2545          
$26ae: 8d 46 25     STA  $2546          
$26b1: 8d 47 25     STA  $2547          
$26b4: 8e 42 25     STX  $2542          
$26b7: a9 f0        LDA  #$f0           
$26b9: 8d 17 d4     STA  $d417          
$26bc: a9 0f        LDA  #$0f           
$26be: 8d ff 3f     STA  $3fff          
$26c1: 8d 18 d4     STA  $d418          
$26c4: 60           RTS                 
l26c5:
$26c5: ae ef 24     LDX  $24ef          
$26c8: ac f0 24     LDY  $24f0          
l26cb:
$26cb: 86 f1        STX  $f1            
$26cd: 84 f2        STY  $f2            
$26cf: ad e7 24     LDA  $24e7          
$26d2: 8d fa 24     STA  $24fa          
$26d5: ad e8 24     LDA  $24e8          
$26d8: 8d fb 24     STA  $24fb          
$26db: 60           RTS                 
l26dc:
$26dc: ae 12 25     LDX  $2512          
$26df: ac 13 25     LDY  $2513          
l26e2:
$26e2: 86 f3        STX  $f3            
$26e4: 84 f4        STY  $f4            
$26e6: ad 0a 25     LDA  $250a          
$26e9: 8d 1d 25     STA  $251d          
$26ec: ad 0b 25     LDA  $250b          
$26ef: 8d 1e 25     STA  $251e          
$26f2: 60           RTS                 
l26f3:
$26f3: ae 35 25     LDX  $2535          
$26f6: ac 36 25     LDY  $2536          
l26f9:
$26f9: 86 f5        STX  $f5            
$26fb: 84 f6        STY  $f6            
$26fd: ad 2d 25     LDA  $252d          
$2700: 8d 40 25     STA  $2540          
$2703: ad 2e 25     LDA  $252e          
$2706: 8d 41 25     STA  $2541          
$2709: 60           RTS                 
l270a:
$270a: ae d1 24     LDX  $24d1          
$270d: ac d2 24     LDY  $24d2          
$2710: 8e d3 24     STX  $24d3          
$2713: 8c d4 24     STY  $24d4          
l2716:
$2716: ad cb 24     LDA  $24cb          
$2719: 8d d5 24     STA  $24d5          
$271c: ad cc 24     LDA  $24cc          
$271f: 8d d6 24     STA  $24d6          
$2722: ad cd 24     LDA  $24cd          
$2725: 8d d7 24     STA  l24d7          
$2728: ad ce 24     LDA  $24ce          
$272b: 8d d8 24     STA  $24d8          
$272e: 60           RTS                 
$272f: 85 fd        STA  $fd            
$2731: 84 fe        STY  $fe            
$2733: 8e 48 25     STX  $2548          
$2736: a9 00        LDA  #$00           
$2738: 8d 17 d4     STA  $d417          
$273b: a9 0f        LDA  #$0f           
$273d: 8d 18 d4     STA  $d418          
$2740: bd 6a 25     LDA  $256a,x        
$2743: 8d 55 27     STA  $2755          
$2746: a9 08        LDA  #$08           
$2748: bc 6a 25     LDY  $256a,x        
$274b: 99 02 d4     STA  $d402,y        
$274e: a0 1a        LDY  #$1a           
$2750: a2 04        LDX  #$04           
l2752:
$2752: b1 fd        LDA  ($fd),y        
$2754: 9d 10 d4     STA  $d410,x        
$2757: 88           DEY                 
$2758: ca           DEX                 
$2759: 10 f7        BPL  l2752          
$275b: a0 1d        LDY  #$1d           
$275d: ae 55 27     LDX  $2755          
$2760: b1 fd        LDA  ($fd),y        
$2762: 9d fe d3     STA  $d3fe,x        
$2765: c8           INY                 
$2766: b1 fd        LDA  ($fd),y        
$2768: 9d ff d3     STA  $d3ff,x        
$276b: ac 48 25     LDY  $2548          
$276e: be 70 25     LDX  $2570,y        
$2771: a0 1e        LDY  #$1e           
$2773: 9d db 24     STA  $24db,x        
$2776: 88           DEY                 
$2777: b1 fd        LDA  ($fd),y        
$2779: 9d da 24     STA  $24da,x        
$277c: 88           DEY                 
$277d: b1 fd        LDA  ($fd),y        
$277f: 9d de 24     STA  $24de,x        
$2782: 88           DEY                 
$2783: b1 fd        LDA  ($fd),y        
$2785: 9d dd 24     STA  $24dd,x        
$2788: a0 18        LDY  #$18           
$278a: b1 fd        LDA  ($fd),y        
$278c: 9d dc 24     STA  $24dc,x        
$278f: a0 17        LDY  #$17           
l2791:
$2791: b1 fd        LDA  ($fd),y        
$2793: 9d d9 24     STA  $24d9,x        
$2796: ca           DEX                 
$2797: 88           DEY                 
$2798: 10 f7        BPL  l2791          
$279a: e8           INX                 
$279b: d0 2b        BNE  l27c8          
$279d: ad ea 24     LDA  $24ea          
$27a0: f0 03        BEQ  l27a5          
$27a2: 20 c5 26     JSR  $26c5          
l27a5:
$27a5: ae f1 24     LDX  $24f1          
$27a8: ac f2 24     LDY  $24f2          
$27ab: 86 f7        STX  $f7            
$27ad: 84 f8        STY  $f8            
l27af:
$27af: ad e4 24     LDA  $24e4          
$27b2: 8d f9 24     STA  $24f9          
$27b5: ad e3 24     LDA  $24e3          
$27b8: 8d f8 24     STA  $24f8          
$27bb: ad e2 24     LDA  $24e2          
$27be: 8d f7 24     STA  $24f7          
$27c1: ad e1 24     LDA  $24e1          
$27c4: 8d f6 24     STA  $24f6          
$27c7: 60           RTS                 
l27c8:
$27c8: e0 46        CPX  #$46           
$27ca: f0 30        BEQ  l27fc          
$27cc: ad 0d 25     LDA  $250d          
$27cf: f0 03        BEQ  l27d4          
$27d1: 20 dc 26     JSR  $26dc          
l27d4:
$27d4: ad 09 25     LDA  $2509          
$27d7: f0 22        BEQ  l27fb          
l27d9:
$27d9: ae 14 25     LDX  $2514          
$27dc: ac 15 25     LDY  $2515          
$27df: 86 f9        STX  $f9            
$27e1: 84 fa        STY  $fa            
l27e3:
$27e3: ad 07 25     LDA  $2507          
$27e6: 8d 1c 25     STA  $251c          
$27e9: ad 06 25     LDA  $2506          
$27ec: 8d 1b 25     STA  $251b          
$27ef: ad 05 25     LDA  $2505          
$27f2: 8d 1a 25     STA  $251a          
$27f5: ad 04 25     LDA  $2504          
$27f8: 8d 19 25     STA  $2519          
l27fb:
$27fb: 60           RTS                 
l27fc:
$27fc: ad 30 25     LDA  $2530          
$27ff: f0 03        BEQ  l2804          
$2801: 20 f3 26     JSR  $26f3          
l2804:
$2804: ad 2c 25     LDA  $252c          
$2807: f0 f2        BEQ  l27fb          
l2809:
$2809: ae 37 25     LDX  $2537          
$280c: ac 38 25     LDY  $2538          
$280f: 86 fb        STX  $fb            
$2811: 84 fc        STY  $fc            
l2813:
$2813: ad 2a 25     LDA  $252a          
$2816: 8d 3f 25     STA  $253f          
$2819: ad 29 25     LDA  $2529          
$281c: 8d 3e 25     STA  $253e          
$281f: ad 28 25     LDA  $2528          
$2822: 8d 3d 25     STA  $253d          
$2825: ad 27 25     LDA  $2527          
$2828: 8d 3c 25     STA  $253c          
$282b: 60           RTS                 
$282c: b1 e0        LDA  ($e0),y        
$282e: 85 ec        STA  $ec            
$2830: c8           INY                 
$2831: a9 04        LDA  #$04           
$2833: 2c a9 03     BIT  $03a9          
$2836: a6 e9        LDX  $e9            
$2838: 18           CLC                 
$2839: 65 e0        ADC  $e0            
$283b: 95 30        STA  $30,x          
$283d: a9 00        LDA  #$00           
$283f: 65 e1        ADC  $e1            
$2841: 95 38        STA  $38,x          
$2843: c6 e9        DEC  $e9            
$2845: b1 e0        LDA  ($e0),y        
$2847: aa           TAX                 
$2848: c8           INY                 
$2849: b1 e0        LDA  ($e0),y        
$284b: 86 e0        STX  $e0            
$284d: 85 e1        STA  $e1            
$284f: 4c 2c 2c     JMP  $2c2c          
$2852: b1 e0        LDA  ($e0),y        
$2854: aa           TAX                 
$2855: c8           INY                 
$2856: b1 e0        LDA  ($e0),y        
$2858: 9d d9 24     STA  $24d9,x        
$285b: c8           INY                 
$285c: b1 e0        LDA  ($e0),y        
$285e: 9d da 24     STA  $24da,x        
$2861: a9 04        LDA  #$04           
$2863: 4c 25 2c     JMP  $2c25          
$2866: b1 e0        LDA  ($e0),y        
$2868: aa           TAX                 
$2869: c8           INY                 
$286a: b1 e0        LDA  ($e0),y        
$286c: 8d 76 28     STA  $2876          
$286f: c8           INY                 
$2870: b1 e0        LDA  ($e0),y        
$2872: 8d 77 28     STA  $2877          
l2875:
$2875: bd 69 34     LDA  $3469,x        
$2878: 9d 5c 24     STA  $245c,x        
$287b: ca           DEX                 
$287c: 10 f7        BPL  l2875          
$287e: a9 04        LDA  #$04           
$2880: 4c 25 2c     JMP  l2c25          
$2883: a6 e9        LDX  $e9            
$2885: a9 02        LDA  #$02           
$2887: 18           CLC                 
$2888: 65 e0        ADC  $e0            
$288a: 95 30        STA  $30,x          
$288c: a9 00        LDA  #$00           
$288e: 65 e1        ADC  $e1            
$2890: 95 38        STA  $38,x          
$2892: b1 e0        LDA  ($e0),y        
$2894: 95 40        STA  $40,x          
$2896: c6 e9        DEC  $e9            
$2898: a9 02        LDA  #$02           
$289a: 4c 25 2c     JMP  l2c25          
$289d: b1 e0        LDA  ($e0),y        
$289f: 8d ab 28     STA  $28ab          
$28a2: c8           INY                 
$28a3: b1 e0        LDA  ($e0),y        
$28a5: 8d ac 28     STA  $28ac          
$28a8: a2 0d        LDX  #$0d           
l28aa:
$28aa: bd 47 39     LDA  $3947,x        
$28ad: 9d 5c 24     STA  $245c,x        
$28b0: ca           DEX                 
$28b1: 10 f7        BPL  l28aa          
$28b3: 4c 23 2c     JMP  $2c23          
$28b6: b1 e0        LDA  ($e0),y        
$28b8: aa           TAX                 
$28b9: c8           INY                 
$28ba: b1 e0        LDA  ($e0),y        
$28bc: 86 e0        STX  $e0            
$28be: 85 e1        STA  $e1            
$28c0: 4c 2c 2c     JMP  l2c2c          
$28c3: b1 e0        LDA  ($e0),y        
$28c5: aa           TAX                 
$28c6: c8           INY                 
$28c7: b1 e0        LDA  ($e0),y        
$28c9: 9d 5c 24     STA  $245c,x        
$28cc: 4c 23 2c     JMP  l2c23          
$28cf: a6 e9        LDX  $e9            
$28d1: d6 41        DEC  $41,x          
$28d3: f0 0b        BEQ  l28e0          
$28d5: b4 31        LDY  $31,x          
$28d7: b5 39        LDA  $39,x          
$28d9: 84 e0        STY  $e0            
$28db: 85 e1        STA  $e1            
$28dd: 4c 2c 2c     JMP  l2c2c          
l28e0:
$28e0: e6 e9        INC  $e9            
$28e2: 98           TYA                 
$28e3: 4c 25 2c     JMP  l2c25          
$28e6: a4 e9        LDY  $e9            
$28e8: c0 07        CPY  #$07           
$28ea: f0 0e        BEQ  l28fa          
$28ec: e6 e9        INC  $e9            
$28ee: b6 31        LDX  $31,y          
$28f0: b9 39 00     LDA  $0039,y        
$28f3: 86 e0        STX  $e0            
$28f5: 85 e1        STA  $e1            
$28f7: 4c 2c 2c     JMP  l2c2c          
l28fa:
$28fa: ce 45 25     DEC  $2545          
$28fd: 60           RTS                 
$28fe: b1 e0        LDA  ($e0),y        
$2900: aa           TAX                 
$2901: c8           INY                 
$2902: b1 e0        LDA  ($e0),y        
$2904: 9d d9 24     STA  $24d9,x        
$2907: 4c 23 2c     JMP  l2c23          
$290a: b1 e0        LDA  ($e0),y        
$290c: 85 ef        STA  $ef            
$290e: c8           INY                 
$290f: b1 e0        LDA  ($e0),y        
$2911: 85 f0        STA  $f0            
$2913: a0 04        LDY  #$04           
l2915:
$2915: b1 ef        LDA  ($ef),y        
$2917: 99 74 24     STA  $2474,y        
$291a: 88           DEY                 
$291b: 10 f8        BPL  l2915          
$291d: 4c 23 2c     JMP  l2c23          
$2920: a9 03        LDA  #$03           
$2922: a6 ea        LDX  $ea            
$2924: 18           CLC                 
$2925: 65 e2        ADC  $e2            
$2927: 95 a8        STA  $a8,x          
$2929: a9 00        LDA  #$00           
$292b: 65 e3        ADC  $e3            
$292d: 95 b0        STA  $b0,x          
$292f: c6 ea        DEC  $ea            
$2931: b1 e2        LDA  ($e2),y        
$2933: aa           TAX                 
$2934: c8           INY                 
$2935: b1 e2        LDA  ($e2),y        
$2937: 86 e2        STX  $e2            
$2939: 85 e3        STA  $e3            
$293b: 4c 83 2d     JMP  $2d83          
$293e: b1 e2        LDA  ($e2),y        
$2940: aa           TAX                 
$2941: c8           INY                 
$2942: b1 e2        LDA  ($e2),y        
$2944: 9d 79 24     STA  $2479,x        
$2947: c8           INY                 
$2948: b1 e2        LDA  ($e2),y        
$294a: 9d 7a 24     STA  $247a,x        
$294d: a9 04        LDA  #$04           
$294f: 4c 7c 2d     JMP  $2d7c          
$2952: b1 e2        LDA  ($e2),y        
$2954: aa           TAX                 
$2955: c8           INY                 
$2956: b1 e2        LDA  ($e2),y        
$2958: 9d fc 24     STA  $24fc,x        
$295b: c8           INY                 
$295c: b1 e2        LDA  ($e2),y        
$295e: 9d fd 24     STA  $24fd,x        
$2961: a9 04        LDA  #$04           
$2963: 4c 7c 2d     JMP  l2d7c          
$2966: b1 e2        LDA  ($e2),y        
$2968: aa           TAX                 
$2969: c8           INY                 
$296a: b1 e2        LDA  ($e2),y        
$296c: 8d 76 29     STA  $2976          
$296f: c8           INY                 
$2970: b1 e2        LDA  ($e2),y        
$2972: 8d 77 29     STA  $2977          
l2975:
$2975: bd ea 34     LDA  $34ea,x        
$2978: 9d 79 24     STA  $2479,x        
$297b: ca           DEX                 
$297c: 10 f7        BPL  l2975          
$297e: a9 04        LDA  #$04           
$2980: 4c 7c 2d     JMP  l2d7c          
$2983: a6 ea        LDX  $ea            
$2985: a9 02        LDA  #$02           
$2987: 18           CLC                 
$2988: 65 e2        ADC  $e2            
$298a: 95 a8        STA  $a8,x          
$298c: a9 00        LDA  #$00           
$298e: 65 e3        ADC  $e3            
$2990: 95 b0        STA  $b0,x          
$2992: b1 e2        LDA  ($e2),y        
$2994: 95 b8        STA  $b8,x          
$2996: c6 ea        DEC  $ea            
$2998: a9 02        LDA  #$02           
$299a: 4c 7c 2d     JMP  l2d7c          
$299d: b1 e2        LDA  ($e2),y        
$299f: 8d ab 29     STA  $29ab          
$29a2: c8           INY                 
$29a3: b1 e2        LDA  ($e2),y        
$29a5: 8d ac 29     STA  $29ac          
$29a8: a2 0d        LDX  #$0d           
l29aa:
$29aa: bd 47 39     LDA  $3947,x        
$29ad: 9d 79 24     STA  $2479,x        
$29b0: ca           DEX                 
$29b1: 10 f7        BPL  l29aa          
$29b3: 4c 7a 2d     JMP  $2d7a          
$29b6: b1 e2        LDA  ($e2),y        
$29b8: aa           TAX                 
$29b9: c8           INY                 
$29ba: b1 e2        LDA  ($e2),y        
$29bc: 86 e2        STX  $e2            
$29be: 85 e3        STA  $e3            
$29c0: 4c 83 2d     JMP  l2d83          
$29c3: b1 e2        LDA  ($e2),y        
$29c5: aa           TAX                 
$29c6: c8           INY                 
$29c7: b1 e2        LDA  ($e2),y        
$29c9: 9d 79 24     STA  $2479,x        
$29cc: 4c 7a 2d     JMP  l2d7a          
$29cf: a6 ea        LDX  $ea            
$29d1: d6 b9        DEC  $b9,x          
$29d3: f0 0b        BEQ  l29e0          
$29d5: b4 a9        LDY  $a9,x          
$29d7: b5 b1        LDA  $b1,x          
$29d9: 84 e2        STY  $e2            
$29db: 85 e3        STA  $e3            
$29dd: 4c 83 2d     JMP  l2d83          
l29e0:
$29e0: e6 ea        INC  $ea            
$29e2: 98           TYA                 
$29e3: 4c 7c 2d     JMP  l2d7c          
$29e6: a4 ea        LDY  $ea            
$29e8: c0 07        CPY  #$07           
$29ea: f0 0e        BEQ  l29fa          
$29ec: e6 ea        INC  $ea            
$29ee: b6 a9        LDX  $a9,y          
$29f0: b9 b1 00     LDA  $00b1,y        
$29f3: 86 e2        STX  $e2            
$29f5: 85 e3        STA  $e3            
$29f7: 4c 83 2d     JMP  l2d83          
l29fa:
$29fa: ce 46 25     DEC  $2546          
$29fd: 60           RTS                 
$29fe: b1 e2        LDA  ($e2),y        
$2a00: aa           TAX                 
$2a01: c8           INY                 
$2a02: b1 e2        LDA  ($e2),y        
$2a04: 9d fc 24     STA  $24fc,x        
$2a07: 4c 7a 2d     JMP  l2d7a          
$2a0a: b1 e2        LDA  ($e2),y        
$2a0c: 85 ef        STA  $ef            
$2a0e: c8           INY                 
$2a0f: b1 e2        LDA  ($e2),y        
$2a11: 85 f0        STA  $f0            
$2a13: a0 04        LDY  #$04           
l2a15:
$2a15: b1 ef        LDA  ($ef),y        
$2a17: 99 91 24     STA  $2491,y        
$2a1a: 88           DEY                 
$2a1b: 10 f8        BPL  l2a15          
$2a1d: 4c 7a 2d     JMP  l2d7a          
$2a20: b1 e4        LDA  ($e4),y        
$2a22: 85 ee        STA  $ee            
$2a24: c8           INY                 
$2a25: a9 04        LDA  #$04           
$2a27: 2c a9 03     BIT  $03a9          
$2a2a: a6 eb        LDX  $eb            
$2a2c: 18           CLC                 
$2a2d: 65 e4        ADC  $e4            
$2a2f: 95 60        STA  $60,x          
$2a31: a9 00        LDA  #$00           
$2a33: 65 e5        ADC  $e5            
$2a35: 95 68        STA  $68,x          
$2a37: c6 eb        DEC  $eb            
$2a39: b1 e4        LDA  ($e4),y        
$2a3b: aa           TAX                 
$2a3c: c8           INY                 
$2a3d: b1 e4        LDA  ($e4),y        
$2a3f: 86 e4        STX  $e4            
$2a41: 85 e5        STA  $e5            
$2a43: 4c dc 2e     JMP  $2edc          
$2a46: a9 2e        LDA  #$2e           
$2a48: 48           PHA                 
$2a49: a9 d2        LDA  #$d2           
$2a4b: 48           PHA                 
$2a4c: b1 e4        LDA  ($e4),y        
$2a4e: 85 ef        STA  $ef            
$2a50: c8           INY                 
$2a51: b1 e4        LDA  ($e4),y        
$2a53: 85 f0        STA  $f0            
$2a55: 6c ef 00     JMP  ($00ef)        
$2a58: b1 e4        LDA  ($e4),y        
$2a5a: aa           TAX                 
$2a5b: c8           INY                 
$2a5c: b1 e4        LDA  ($e4),y        
$2a5e: 9d 96 24     STA  $2496,x        
$2a61: c8           INY                 
$2a62: b1 e4        LDA  ($e4),y        
$2a64: 9d 97 24     STA  $2497,x        
$2a67: a9 04        LDA  #$04           
$2a69: 4c d5 2e     JMP  $2ed5          
$2a6c: b1 e4        LDA  ($e4),y        
$2a6e: aa           TAX                 
$2a6f: c8           INY                 
$2a70: b1 e4        LDA  ($e4),y        
$2a72: 9d 1f 25     STA  $251f,x        
$2a75: c8           INY                 
$2a76: b1 e4        LDA  ($e4),y        
$2a78: 9d 20 25     STA  $2520,x        
$2a7b: a9 04        LDA  #$04           
$2a7d: 4c d5 2e     JMP  l2ed5          
$2a80: b1 e4        LDA  ($e4),y        
$2a82: 8d 8e 2a     STA  $2a8e          
$2a85: c8           INY                 
$2a86: b1 e4        LDA  ($e4),y        
$2a88: 8d 8f 2a     STA  $2a8f          
$2a8b: a2 0f        LDX  #$0f           
l2a8d:
$2a8d: bd 8c 36     LDA  $368c,x        
$2a90: 9d b3 24     STA  $24b3,x        
$2a93: ca           DEX                 
$2a94: 10 f7        BPL  l2a8d          
$2a96: 4c d3 2e     JMP  $2ed3          
$2a99: b1 e4        LDA  ($e4),y        
$2a9b: aa           TAX                 
$2a9c: c8           INY                 
$2a9d: b1 e4        LDA  ($e4),y        
$2a9f: 8d a9 2a     STA  $2aa9          
$2aa2: c8           INY                 
$2aa3: b1 e4        LDA  ($e4),y        
$2aa5: 8d aa 2a     STA  $2aaa          
l2aa8:
$2aa8: bd 6f 36     LDA  $366f,x        
$2aab: 9d 96 24     STA  $2496,x        
$2aae: ca           DEX                 
$2aaf: 10 f7        BPL  l2aa8          
$2ab1: a9 04        LDA  #$04           
$2ab3: 4c d5 2e     JMP  l2ed5          
$2ab6: a6 eb        LDX  $eb            
$2ab8: a9 02        LDA  #$02           
$2aba: 18           CLC                 
$2abb: 65 e4        ADC  $e4            
$2abd: 95 60        STA  $60,x          
$2abf: a9 00        LDA  #$00           
$2ac1: 65 e5        ADC  $e5            
$2ac3: 95 68        STA  $68,x          
$2ac5: b1 e4        LDA  ($e4),y        
$2ac7: 95 70        STA  $70,x          
$2ac9: c6 eb        DEC  $eb            
$2acb: a9 02        LDA  #$02           
$2acd: 4c d5 2e     JMP  l2ed5          
$2ad0: b1 e4        LDA  ($e4),y        
$2ad2: 8d de 2a     STA  $2ade          
$2ad5: c8           INY                 
$2ad6: b1 e4        LDA  ($e4),y        
$2ad8: 8d df 2a     STA  $2adf          
$2adb: a2 0d        LDX  #$0d           
l2add:
$2add: bd 47 39     LDA  $3947,x        
$2ae0: 9d 96 24     STA  $2496,x        
$2ae3: ca           DEX                 
$2ae4: 10 f7        BPL  l2add          
$2ae6: 4c d3 2e     JMP  l2ed3          
$2ae9: b1 e4        LDA  ($e4),y        
$2aeb: aa           TAX                 
$2aec: c8           INY                 
$2aed: b1 e4        LDA  ($e4),y        
$2aef: 86 e4        STX  $e4            
$2af1: 85 e5        STA  $e5            
$2af3: 4c dc 2e     JMP  l2edc          
l2af6:
$2af6: a0 f4        LDY  #$f4           
$2af8: 8c 17 d4     STY  $d417          
$2afb: 8e 42 25     STX  $2542          
$2afe: a2 1f        LDX  #$1f           
$2b00: 8e 18 d4     STX  $d418          
$2b03: a9 01        LDA  #$01           
$2b05: 4c d5 2e     JMP  l2ed5          
$2b08: a2 02        LDX  #$02           
$2b0a: d0 ea        BNE  l2af6          
$2b0c: b1 e4        LDA  ($e4),y        
$2b0e: aa           TAX                 
$2b0f: c8           INY                 
$2b10: b1 e4        LDA  ($e4),y        
$2b12: 9d 96 24     STA  $2496,x        
$2b15: 4c d3 2e     JMP  l2ed3          
$2b18: a6 eb        LDX  $eb            
$2b1a: d6 71        DEC  $71,x          
$2b1c: f0 0b        BEQ  l2b29          
$2b1e: b4 61        LDY  $61,x          
$2b20: b5 69        LDA  $69,x          
$2b22: 84 e4        STY  $e4            
$2b24: 85 e5        STA  $e5            
$2b26: 4c dc 2e     JMP  l2edc          
l2b29:
$2b29: e6 eb        INC  $eb            
$2b2b: 98           TYA                 
$2b2c: 4c d5 2e     JMP  l2ed5          
$2b2f: a4 eb        LDY  $eb            
$2b31: c0 07        CPY  #$07           
$2b33: f0 0e        BEQ  l2b43          
$2b35: e6 eb        INC  $eb            
$2b37: b6 61        LDX  $61,y          
$2b39: b9 69 00     LDA  $0069,y        
$2b3c: 86 e4        STX  $e4            
$2b3e: 85 e5        STA  $e5            
$2b40: 4c dc 2e     JMP  l2edc          
l2b43:
$2b43: ce 47 25     DEC  $2547          
$2b46: 60           RTS                 
$2b47: b1 e4        LDA  ($e4),y        
$2b49: 85 ef        STA  $ef            
$2b4b: c8           INY                 
$2b4c: b1 e4        LDA  ($e4),y        
$2b4e: 85 f0        STA  $f0            
$2b50: a0 04        LDY  #$04           
l2b52:
$2b52: b1 ef        LDA  ($ef),y        
$2b54: 99 ae 24     STA  $24ae,y        
$2b57: 88           DEY                 
$2b58: 10 f8        BPL  l2b52          
$2b5a: 4c d3 2e     JMP  l2ed3          
l2b5d:
$2b5d: ad d0 24     LDA  $24d0          
$2b60: f0 16        BEQ  l2b78          
$2b62: ae d3 24     LDX  $24d3          
$2b65: ac d4 24     LDY  $24d4          
$2b68: 18           CLC                 
$2b69: ad cf 24     LDA  $24cf          
$2b6c: f0 0c        BEQ  l2b7a          
$2b6e: ce cf 24     DEC  $24cf          
$2b71: ad d0 24     LDA  $24d0          
$2b74: 29 02        AND  #$02           
$2b76: d0 46        BNE  l2bbe          
l2b78:
$2b78: 60           RTS                 
l2b79:
$2b79: 18           CLC                 
l2b7a:
$2b7a: ad d5 24     LDA  $24d5          
$2b7d: f0 0f        BEQ  l2b8e          
$2b7f: ce d5 24     DEC  $24d5          
$2b82: 8a           TXA                 
$2b83: 6d c3 24     ADC  $24c3          
$2b86: aa           TAX                 
$2b87: 98           TYA                 
$2b88: 6d c4 24     ADC  $24c4          
$2b8b: 4c c7 2b     JMP  $2bc7          
l2b8e:
$2b8e: ad d6 24     LDA  $24d6          
$2b91: f0 0f        BEQ  l2ba2          
$2b93: ce d6 24     DEC  $24d6          
$2b96: 8a           TXA                 
$2b97: 6d c5 24     ADC  $24c5          
$2b9a: aa           TAX                 
$2b9b: 98           TYA                 
$2b9c: 6d c6 24     ADC  $24c6          
$2b9f: 4c c7 2b     JMP  l2bc7          
l2ba2:
$2ba2: ad d7 24     LDA  l24d7          
$2ba5: f0 0f        BEQ  l2bb6          
$2ba7: ce d7 24     DEC  l24d7          
$2baa: 8a           TXA                 
$2bab: 6d c7 24     ADC  $24c7          
$2bae: aa           TAX                 
$2baf: 98           TYA                 
$2bb0: 6d c8 24     ADC  $24c8          
$2bb3: 4c c7 2b     JMP  l2bc7          
l2bb6:
$2bb6: ad d8 24     LDA  $24d8          
$2bb9: f0 2e        BEQ  l2be9          
$2bbb: ce d8 24     DEC  $24d8          
l2bbe:
$2bbe: 8a           TXA                 
$2bbf: 6d c9 24     ADC  $24c9          
$2bc2: aa           TAX                 
$2bc3: 98           TYA                 
$2bc4: 6d ca 24     ADC  $24ca          
l2bc7:
$2bc7: a8           TAY                 
l2bc8:
$2bc8: 8e d3 24     STX  $24d3          
$2bcb: 8c d4 24     STY  $24d4          
l2bce:
$2bce: 8a           TXA                 
$2bcf: 29 07        AND  #$07           
$2bd1: 8d 15 d4     STA  $d415          
$2bd4: 98           TYA                 
$2bd5: 8e 43 25     STX  $2543          
$2bd8: 4a           LSR                 
$2bd9: 6e 43 25     ROR  $2543          
$2bdc: 4a           LSR                 
$2bdd: 6e 43 25     ROR  $2543          
$2be0: 4a           LSR                 
$2be1: ad 43 25     LDA  $2543          
$2be4: 6a           ROR                 
$2be5: 8d 16 d4     STA  $d416          
$2be8: 60           RTS                 
l2be9:
$2be9: ad d0 24     LDA  $24d0          
$2bec: 29 81        AND  #$81           
$2bee: f0 d8        BEQ  l2bc8          
$2bf0: 10 06        BPL  l2bf8          
$2bf2: 20 0a 27     JSR  $270a          
$2bf5: 4c 79 2b     JMP  $2b79          
l2bf8:
$2bf8: 20 16 27     JSR  $2716          
$2bfb: 4c 79 2b     JMP  l2b79          
l2bfe:
$2bfe: a2 07        LDX  #$07           
l2c00:
$2c00: bd b3 24     LDA  $24b3,x        
$2c03: 9d c3 24     STA  $24c3,x        
$2c06: bd bb 24     LDA  $24bb,x        
$2c09: 9d cb 24     STA  $24cb,x        
$2c0c: ca           DEX                 
$2c0d: 10 f1        BPL  l2c00          
$2c0f: 20 0a 27     JSR  l270a          
$2c12: 4c ce 2b     JMP  $2bce          
l2c15:
$2c15: ad 45 25     LDA  $2545          
$2c18: f0 04        BEQ  l2c1e          
$2c1a: c6 e6        DEC  $e6            
$2c1c: f0 0e        BEQ  l2c2c          
l2c1e:
$2c1e: 60           RTS                 
l2c1f:
$2c1f: e6 e1        INC  $e1            
$2c21: d0 09        BNE  l2c2c          
l2c23:
$2c23: a9 03        LDA  #$03           
l2c25:
$2c25: 18           CLC                 
$2c26: 65 e0        ADC  $e0            
$2c28: 85 e0        STA  $e0            
$2c2a: b0 f3        BCS  l2c1f          
l2c2c:
$2c2c: a0 00        LDY  #$00           
$2c2e: b1 e0        LDA  ($e0),y        
$2c30: c9 c0        CMP  #$c0           
$2c32: 90 0c        BCC  l2c40          
$2c34: c8           INY                 
$2c35: 69 3f        ADC  #$3f           
$2c37: 8d 3b 2c     STA  $2c3b          
$2c3a: 6c 0e 3f     JMP  ($3f0e)        
l2c3d:
$2c3d: 4c 4f 2d     JMP  $2d4f          
l2c40:
$2c40: 85 ff        STA  $ff            
$2c42: c9 60        CMP  #$60           
$2c44: 90 02        BCC  l2c48          
$2c46: e9 60        SBC  #$60           
l2c48:
$2c48: c9 5f        CMP  #$5f           
$2c4a: f0 f1        BEQ  l2c3d          
$2c4c: 65 ec        ADC  $ec            
$2c4e: aa           TAX                 
$2c4f: a9 08        LDA  #$08           
$2c51: 8d 04 d4     STA  $d404          
$2c54: ad 42 25     LDA  $2542          
$2c57: d0 07        BNE  l2c60          
$2c59: 86 ef        STX  $ef            
$2c5b: 20 fe 2b     JSR  $2bfe          
$2c5e: a6 ef        LDX  $ef            
l2c60:
$2c60: bc c4 25     LDY  $25c4,x        
$2c63: bd 73 25     LDA  $2573,x        
$2c66: 8d f1 24     STA  $24f1          
$2c69: 8c f2 24     STY  $24f2          
$2c6c: 8d 00 d4     STA  $d400          
$2c6f: 8c 01 d4     STY  $d401          
$2c72: ae 72 24     LDX  $2472          
$2c75: ac 73 24     LDY  $2473          
$2c78: 8e 02 d4     STX  $d402          
$2c7b: 8c 03 d4     STY  $d403          
$2c7e: ad 75 24     LDA  $2475          
$2c81: 8d 05 d4     STA  $d405          
$2c84: ad 76 24     LDA  $2476          
$2c87: 8d 06 d4     STA  $d406          
$2c8a: ad 74 24     LDA  $2474          
$2c8d: 8d f3 24     STA  $24f3          
$2c90: 29 f7        AND  #$f7           
$2c92: 8d 04 d4     STA  $d404          
$2c95: ad 6d 24     LDA  $246d          
$2c98: 8d ea 24     STA  $24ea          
$2c9b: f0 3a        BEQ  l2cd7          
$2c9d: 8e ef 24     STX  $24ef          
$2ca0: 8c f0 24     STY  $24f0          
$2ca3: 86 f1        STX  $f1            
$2ca5: 84 f2        STY  $f2            
$2ca7: ad 71 24     LDA  $2471          
$2caa: 8d ee 24     STA  $24ee          
$2cad: ad 70 24     LDA  $2470          
$2cb0: 8d ed 24     STA  $24ed          
$2cb3: ad 6f 24     LDA  $246f          
$2cb6: 8d ec 24     STA  $24ec          
$2cb9: ad 6e 24     LDA  $246e          
$2cbc: 8d eb 24     STA  $24eb          
$2cbf: ad 6c 24     LDA  $246c          
$2cc2: 8d e9 24     STA  $24e9          
$2cc5: ae 6a 24     LDX  $246a          
$2cc8: ac 6b 24     LDY  $246b          
$2ccb: 8e e7 24     STX  $24e7          
$2cce: 8e fa 24     STX  $24fa          
$2cd1: 8c e8 24     STY  $24e8          
$2cd4: 8c fb 24     STY  $24fb          
l2cd7:
$2cd7: ad 69 24     LDA  $2469          
$2cda: 8d e6 24     STA  $24e6          
$2cdd: f0 64        BEQ  l2d43          
$2cdf: ae 68 24     LDX  $2468          
$2ce2: 8e e5 24     STX  $24e5          
$2ce5: ae 67 24     LDX  $2467          
$2ce8: 8e e4 24     STX  $24e4          
$2ceb: ae 66 24     LDX  $2466          
$2cee: 8e e3 24     STX  $24e3          
$2cf1: ae 65 24     LDX  $2465          
$2cf4: 8e e2 24     STX  $24e2          
$2cf7: ae 64 24     LDX  $2464          
$2cfa: 8e e1 24     STX  $24e1          
$2cfd: ae 63 24     LDX  $2463          
$2d00: 8e e0 24     STX  $24e0          
$2d03: ae 62 24     LDX  $2462          
$2d06: 8e df 24     STX  $24df          
$2d09: ae 61 24     LDX  $2461          
$2d0c: 8e de 24     STX  $24de          
$2d0f: ae 60 24     LDX  $2460          
$2d12: 8e dd 24     STX  $24dd          
$2d15: ae 5f 24     LDX  $245f          
$2d18: 8e dc 24     STX  $24dc          
$2d1b: ae 5e 24     LDX  $245e          
$2d1e: 8e db 24     STX  $24db          
$2d21: ae 5d 24     LDX  $245d          
$2d24: 8e da 24     STX  $24da          
$2d27: ae 5c 24     LDX  $245c          
$2d2a: 8e d9 24     STX  $24d9          
$2d2d: 29 08        AND  #$08           
$2d2f: f0 0f        BEQ  l2d40          
$2d31: a5 ff        LDA  $ff            
$2d33: c9 60        CMP  #$60           
$2d35: 90 02        BCC  l2d39          
$2d37: e9 5f        SBC  #$5f           
l2d39:
$2d39: 65 ec        ADC  $ec            
$2d3b: 8d e3 24     STA  $24e3          
$2d3e: d0 03        BNE  l2d43          
l2d40:
$2d40: 20 a5 27     JSR  l27a5          
l2d43:
$2d43: ae 77 24     LDX  $2477          
$2d46: ac 78 24     LDY  $2478          
$2d49: 8e f4 24     STX  $24f4          
$2d4c: 8c f5 24     STY  $24f5          
l2d4f:
$2d4f: a0 01        LDY  #$01           
$2d51: b1 e0        LDA  ($e0),y        
$2d53: a6 ff        LDX  $ff            
$2d55: e0 60        CPX  #$60           
$2d57: b0 04        BCS  l2d5d          
$2d59: aa           TAX                 
$2d5a: bd 49 25     LDA  $2549,x        
l2d5d:
$2d5d: 85 e6        STA  $e6            
$2d5f: a9 02        LDA  #$02           
$2d61: 18           CLC                 
$2d62: 65 e0        ADC  $e0            
$2d64: 85 e0        STA  $e0            
$2d66: b0 01        BCS  l2d69          
$2d68: 60           RTS                 
l2d69:
$2d69: e6 e1        INC  $e1            
$2d6b: 60           RTS                 
l2d6c:
$2d6c: ad 46 25     LDA  $2546          
$2d6f: f0 04        BEQ  l2d75          
$2d71: c6 e7        DEC  $e7            
$2d73: f0 0e        BEQ  l2d83          
l2d75:
$2d75: 60           RTS                 
l2d76:
$2d76: e6 e3        INC  $e3            
$2d78: d0 09        BNE  l2d83          
l2d7a:
$2d7a: a9 03        LDA  #$03           
l2d7c:
$2d7c: 18           CLC                 
$2d7d: 65 e2        ADC  $e2            
$2d7f: 85 e2        STA  $e2            
$2d81: b0 f3        BCS  l2d76          
l2d83:
$2d83: a0 00        LDY  #$00           
$2d85: b1 e2        LDA  ($e2),y        
$2d87: c9 c0        CMP  #$c0           
$2d89: 90 0c        BCC  l2d97          
$2d8b: c8           INY                 
$2d8c: 69 71        ADC  #$71           
$2d8e: 8d 92 2d     STA  $2d92          
$2d91: 6c 40 3f     JMP  ($3f40)        
l2d94:
$2d94: 4c a8 2e     JMP  $2ea8          
l2d97:
$2d97: 85 ff        STA  $ff            
$2d99: c9 60        CMP  #$60           
$2d9b: 90 02        BCC  l2d9f          
$2d9d: e9 60        SBC  #$60           
l2d9f:
$2d9f: c9 5f        CMP  #$5f           
$2da1: f0 f1        BEQ  l2d94          
$2da3: 65 ed        ADC  $ed            
$2da5: aa           TAX                 
$2da6: a9 08        LDA  #$08           
$2da8: 8d 0b d4     STA  $d40b          
$2dab: ad 42 25     LDA  $2542          
$2dae: c9 01        CMP  #$01           
$2db0: d0 07        BNE  l2db9          
$2db2: 86 ef        STX  $ef            
$2db4: 20 fe 2b     JSR  l2bfe          
$2db7: a6 ef        LDX  $ef            
l2db9:
$2db9: bc c4 25     LDY  $25c4,x        
$2dbc: bd 73 25     LDA  $2573,x        
$2dbf: 8d 14 25     STA  $2514          
$2dc2: 8c 15 25     STY  $2515          
$2dc5: 8d 07 d4     STA  $d407          
$2dc8: 8c 08 d4     STY  $d408          
$2dcb: ae 8f 24     LDX  $248f          
$2dce: ac 90 24     LDY  $2490          
$2dd1: 8e 09 d4     STX  $d409          
$2dd4: 8c 0a d4     STY  $d40a          
$2dd7: ad 92 24     LDA  $2492          
$2dda: 8d 0c d4     STA  $d40c          
$2ddd: ad 93 24     LDA  $2493          
$2de0: 8d 0d d4     STA  $d40d          
$2de3: ad 91 24     LDA  $2491          
$2de6: 8d 16 25     STA  $2516          
$2de9: 29 f7        AND  #$f7           
$2deb: 8d 0b d4     STA  $d40b          
$2dee: ad 8a 24     LDA  $248a          
$2df1: 8d 0d 25     STA  $250d          
$2df4: f0 3a        BEQ  l2e30          
$2df6: 8e 12 25     STX  $2512          
$2df9: 8c 13 25     STY  $2513          
$2dfc: 86 f3        STX  $f3            
$2dfe: 84 f4        STY  $f4            
$2e00: ad 8e 24     LDA  $248e          
$2e03: 8d 11 25     STA  $2511          
$2e06: ae 8d 24     LDX  $248d          
$2e09: 8e 10 25     STX  $2510          
$2e0c: ad 8c 24     LDA  $248c          
$2e0f: 8d 0f 25     STA  $250f          
$2e12: ad 8b 24     LDA  $248b          
$2e15: 8d 0e 25     STA  $250e          
$2e18: ad 89 24     LDA  $2489          
$2e1b: 8d 0c 25     STA  $250c          
$2e1e: ae 87 24     LDX  $2487          
$2e21: ac 88 24     LDY  $2488          
$2e24: 8e 0a 25     STX  $250a          
$2e27: 8e 1d 25     STX  $251d          
$2e2a: 8c 0b 25     STY  $250b          
$2e2d: 8c 1e 25     STY  $251e          
l2e30:
$2e30: ad 86 24     LDA  $2486          
$2e33: 8d 09 25     STA  $2509          
$2e36: f0 64        BEQ  l2e9c          
$2e38: ae 85 24     LDX  $2485          
$2e3b: 8e 08 25     STX  $2508          
$2e3e: ae 84 24     LDX  $2484          
$2e41: 8e 07 25     STX  $2507          
$2e44: ae 83 24     LDX  $2483          
$2e47: 8e 06 25     STX  $2506          
$2e4a: ae 82 24     LDX  $2482          
$2e4d: 8e 05 25     STX  $2505          
$2e50: ae 81 24     LDX  $2481          
$2e53: 8e 04 25     STX  $2504          
$2e56: ae 80 24     LDX  $2480          
$2e59: 8e 03 25     STX  $2503          
$2e5c: ae 7f 24     LDX  $247f          
$2e5f: 8e 02 25     STX  $2502          
$2e62: ae 7e 24     LDX  $247e          
$2e65: 8e 01 25     STX  $2501          
$2e68: ae 7d 24     LDX  $247d          
$2e6b: 8e 00 25     STX  $2500          
$2e6e: ae 7c 24     LDX  $247c          
$2e71: 8e ff 24     STX  $24ff          
$2e74: ae 7b 24     LDX  $247b          
$2e77: 8e fe 24     STX  $24fe          
$2e7a: ae 7a 24     LDX  $247a          
$2e7d: 8e fd 24     STX  $24fd          
$2e80: ae 79 24     LDX  $2479          
$2e83: 8e fc 24     STX  $24fc          
$2e86: 29 08        AND  #$08           
$2e88: f0 0f        BEQ  l2e99          
$2e8a: a5 ff        LDA  $ff            
$2e8c: c9 60        CMP  #$60           
$2e8e: 90 02        BCC  l2e92          
$2e90: e9 5f        SBC  #$5f           
l2e92:
$2e92: 65 ed        ADC  $ed            
$2e94: 8d 06 25     STA  $2506          
$2e97: d0 03        BNE  l2e9c          
l2e99:
$2e99: 20 d9 27     JSR  $27d9          
l2e9c:
$2e9c: ae 94 24     LDX  $2494          
$2e9f: ac 95 24     LDY  $2495          
$2ea2: 8e 17 25     STX  $2517          
$2ea5: 8c 18 25     STY  $2518          
l2ea8:
$2ea8: a0 01        LDY  #$01           
$2eaa: b1 e2        LDA  ($e2),y        
$2eac: a6 ff        LDX  $ff            
$2eae: e0 60        CPX  #$60           
$2eb0: b0 04        BCS  l2eb6          
$2eb2: aa           TAX                 
$2eb3: bd 49 25     LDA  $2549,x        
l2eb6:
$2eb6: 85 e7        STA  $e7            
$2eb8: a9 02        LDA  #$02           
$2eba: 18           CLC                 
$2ebb: 65 e2        ADC  $e2            
$2ebd: 85 e2        STA  $e2            
$2ebf: b0 01        BCS  l2ec2          
$2ec1: 60           RTS                 
l2ec2:
$2ec2: e6 e3        INC  $e3            
$2ec4: 60           RTS                 
l2ec5:
$2ec5: ad 47 25     LDA  $2547          
$2ec8: f0 04        BEQ  l2ece          
$2eca: c6 e8        DEC  $e8            
$2ecc: f0 0e        BEQ  l2edc          
l2ece:
$2ece: 60           RTS                 
l2ecf:
$2ecf: e6 e5        INC  $e5            
$2ed1: d0 09        BNE  l2edc          
l2ed3:
$2ed3: a9 03        LDA  #$03           
l2ed5:
$2ed5: 18           CLC                 
$2ed6: 65 e4        ADC  $e4            
$2ed8: 85 e4        STA  $e4            
$2eda: b0 f3        BCS  l2ecf          
l2edc:
$2edc: a0 00        LDY  #$00           
$2ede: b1 e4        LDA  ($e4),y        
$2ee0: c9 c0        CMP  #$c0           
$2ee2: 90 0c        BCC  l2ef0          
$2ee4: c8           INY                 
$2ee5: 69 a3        ADC  #$a3           
$2ee7: 8d eb 2e     STA  $2eeb          
$2eea: 6c 72 3f     JMP  ($3f72)        
l2eed:
$2eed: 4c 05 30     JMP  $3005          
l2ef0:
$2ef0: 85 ff        STA  $ff            
$2ef2: c9 60        CMP  #$60           
$2ef4: 90 02        BCC  l2ef8          
$2ef6: e9 60        SBC  #$60           
l2ef8:
$2ef8: c9 5f        CMP  #$5f           
$2efa: f0 f1        BEQ  l2eed          
$2efc: c9 50        CMP  #$50           
$2efe: f0 02        BEQ  l2f02          
$2f00: 65 ee        ADC  $ee            
l2f02:
$2f02: aa           TAX                 
$2f03: a9 08        LDA  #$08           
$2f05: 8d 12 d4     STA  $d412          
$2f08: ad 42 25     LDA  $2542          
$2f0b: c9 02        CMP  #$02           
$2f0d: d0 07        BNE  l2f16          
$2f0f: 86 ef        STX  $ef            
$2f11: 20 fe 2b     JSR  l2bfe          
$2f14: a6 ef        LDX  $ef            
l2f16:
$2f16: bc c4 25     LDY  $25c4,x        
$2f19: bd 73 25     LDA  $2573,x        
$2f1c: 8d 37 25     STA  $2537          
$2f1f: 8c 38 25     STY  $2538          
$2f22: 8d 0e d4     STA  $d40e          
$2f25: 8c 0f d4     STY  $d40f          
$2f28: ae ac 24     LDX  $24ac          
$2f2b: ac ad 24     LDY  $24ad          
$2f2e: 8e 10 d4     STX  $d410          
$2f31: 8c 11 d4     STY  $d411          
$2f34: ad af 24     LDA  $24af          
$2f37: 8d 13 d4     STA  $d413          
$2f3a: ad b0 24     LDA  $24b0          
$2f3d: 8d 14 d4     STA  $d414          
$2f40: ad ae 24     LDA  $24ae          
$2f43: 8d 39 25     STA  $2539          
$2f46: 29 f7        AND  #$f7           
$2f48: 8d 12 d4     STA  $d412          
$2f4b: ad a7 24     LDA  $24a7          
$2f4e: 8d 30 25     STA  $2530          
$2f51: f0 3a        BEQ  l2f8d          
$2f53: 8e 35 25     STX  $2535          
$2f56: 8c 36 25     STY  $2536          
$2f59: 86 f5        STX  $f5            
$2f5b: 84 f6        STY  $f6            
$2f5d: ad ab 24     LDA  $24ab          
$2f60: 8d 34 25     STA  $2534          
$2f63: ad aa 24     LDA  $24aa          
$2f66: 8d 33 25     STA  $2533          
$2f69: ad a9 24     LDA  $24a9          
$2f6c: 8d 32 25     STA  l2532          
$2f6f: ad a8 24     LDA  $24a8          
$2f72: 8d 31 25     STA  $2531          
$2f75: ad a6 24     LDA  l24a6          
$2f78: 8d 2f 25     STA  $252f          
$2f7b: ae a4 24     LDX  $24a4          
$2f7e: ac a5 24     LDY  $24a5          
$2f81: 8e 2d 25     STX  $252d          
$2f84: 8e 40 25     STX  $2540          
$2f87: 8c 2e 25     STY  $252e          
$2f8a: 8c 41 25     STY  $2541          
l2f8d:
$2f8d: ad a3 24     LDA  $24a3          
$2f90: 8d 2c 25     STA  $252c          
$2f93: f0 64        BEQ  l2ff9          
$2f95: ae a2 24     LDX  $24a2          
$2f98: 8e 2b 25     STX  $252b          
$2f9b: ae a1 24     LDX  $24a1          
$2f9e: 8e 2a 25     STX  $252a          
$2fa1: ae a0 24     LDX  $24a0          
$2fa4: 8e 29 25     STX  $2529          
$2fa7: ae 9f 24     LDX  $249f          
$2faa: 8e 28 25     STX  $2528          
$2fad: ae 9e 24     LDX  $249e          
$2fb0: 8e 27 25     STX  $2527          
$2fb3: ae 9d 24     LDX  $249d          
$2fb6: 8e 26 25     STX  $2526          
$2fb9: ae 9c 24     LDX  $249c          
$2fbc: 8e 25 25     STX  $2525          
$2fbf: ae 9b 24     LDX  $249b          
$2fc2: 8e 24 25     STX  $2524          
$2fc5: ae 9a 24     LDX  $249a          
$2fc8: 8e 23 25     STX  $2523          
$2fcb: ae 99 24     LDX  $2499          
$2fce: 8e 22 25     STX  l2522          
$2fd1: ae 98 24     LDX  $2498          
$2fd4: 8e 21 25     STX  $2521          
$2fd7: ae 97 24     LDX  $2497          
$2fda: 8e 20 25     STX  $2520          
$2fdd: ae 96 24     LDX  $2496          
$2fe0: 8e 1f 25     STX  $251f          
$2fe3: 29 08        AND  #$08           
$2fe5: f0 0f        BEQ  l2ff6          
$2fe7: a5 ff        LDA  $ff            
$2fe9: c9 60        CMP  #$60           
$2feb: 90 02        BCC  l2fef          
$2fed: e9 5f        SBC  #$5f           
l2fef:
$2fef: 65 ee        ADC  $ee            
$2ff1: 8d 29 25     STA  $2529          
$2ff4: d0 03        BNE  l2ff9          
l2ff6:
$2ff6: 20 09 28     JSR  $2809          
l2ff9:
$2ff9: ae b1 24     LDX  $24b1          
$2ffc: ac b2 24     LDY  $24b2          
$2fff: 8e 3a 25     STX  $253a          
$3002: 8c 3b 25     STY  $253b          
l3005:
$3005: a0 01        LDY  #$01           
$3007: b1 e4        LDA  ($e4),y        
$3009: a6 ff        LDX  $ff            
$300b: e0 60        CPX  #$60           
$300d: b0 04        BCS  l3013          
$300f: aa           TAX                 
$3010: bd 49 25     LDA  $2549,x        
l3013:
$3013: 85 e8        STA  $e8            
$3015: a9 02        LDA  #$02           
$3017: 18           CLC                 
$3018: 65 e4        ADC  $e4            
$301a: 85 e4        STA  $e4            
$301c: b0 01        BCS  l301f          
$301e: 60           RTS                 
l301f:
$301f: e6 e5        INC  $e5            
l3021:
$3021: 60           RTS                 
l3022:
$3022: ae f5 24     LDX  $24f5          
$3025: f0 fa        BEQ  l3021          
$3027: ad f3 24     LDA  $24f3          
$302a: 29 08        AND  #$08           
$302c: f0 16        BEQ  l3044          
$302e: a5 e6        LDA  $e6            
$3030: cd f4 24     CMP  $24f4          
$3033: b0 44        BCS  l3079          
$3035: a9 00        LDA  #$00           
$3037: 8d f4 24     STA  $24f4          
$303a: ad f3 24     LDA  $24f3          
$303d: 29 f6        AND  #$f6           
$303f: 8d f3 24     STA  $24f3          
$3042: d0 32        BNE  l3076          
l3044:
$3044: ad f4 24     LDA  $24f4          
$3047: d0 1d        BNE  l3066          
$3049: ac f5 24     LDY  $24f5          
$304c: c8           INY                 
$304d: f0 2a        BEQ  l3079          
$304f: ce f5 24     DEC  $24f5          
$3052: d0 25        BNE  l3079          
$3054: a2 06        LDX  #$06           
l3056:
$3056: 9d 00 d4     STA  $d400,x        
$3059: ca           DEX                 
$305a: 10 fa        BPL  l3056          
l305c:
$305c: cd 42 25     CMP  $2542          
$305f: d0 c0        BNE  l3021          
$3061: e8           INX                 
$3062: 8e d0 24     STX  $24d0          
$3065: 60           RTS                 
l3066:
$3066: ac f4 24     LDY  $24f4          
$3069: c8           INY                 
$306a: f0 0d        BEQ  l3079          
$306c: ce f4 24     DEC  $24f4          
$306f: d0 08        BNE  l3079          
$3071: ad f3 24     LDA  $24f3          
$3074: 29 f6        AND  #$f6           
l3076:
$3076: 8d 04 d4     STA  $d404          
l3079:
$3079: ad ea 24     LDA  $24ea          
$307c: f0 59        BEQ  l30d7          
$307e: ad e9 24     LDA  $24e9          
$3081: f0 06        BEQ  l3089          
$3083: ce e9 24     DEC  $24e9          
$3086: 4c d7 30     JMP  l30d7          
l3089:
$3089: 18           CLC                 
$308a: a6 f1        LDX  $f1            
$308c: a4 f2        LDY  $f2            
$308e: ad fa 24     LDA  $24fa          
$3091: f0 10        BEQ  l30a3          
$3093: ce fa 24     DEC  $24fa          
$3096: 8a           TXA                 
$3097: 6d eb 24     ADC  $24eb          
$309a: aa           TAX                 
$309b: 98           TYA                 
$309c: 6d ec 24     ADC  $24ec          
$309f: a8           TAY                 
$30a0: 4c cd 30     JMP  $30cd          
l30a3:
$30a3: ad fb 24     LDA  $24fb          
$30a6: f0 10        BEQ  l30b8          
$30a8: ce fb 24     DEC  $24fb          
$30ab: 8a           TXA                 
$30ac: 6d ed 24     ADC  $24ed          
$30af: aa           TAX                 
$30b0: 98           TYA                 
$30b1: 6d ee 24     ADC  $24ee          
$30b4: a8           TAY                 
$30b5: 4c cd 30     JMP  l30cd          
l30b8:
$30b8: ad ea 24     LDA  $24ea          
$30bb: 29 81        AND  #$81           
$30bd: f0 0e        BEQ  l30cd          
$30bf: 10 06        BPL  l30c7          
$30c1: 20 c5 26     JSR  l26c5          
$30c4: 4c 89 30     JMP  l3089          
l30c7:
$30c7: 20 cb 26     JSR  $26cb          
$30ca: 4c 89 30     JMP  l3089          
l30cd:
$30cd: 86 f1        STX  $f1            
$30cf: 84 f2        STY  $f2            
$30d1: 8e 02 d4     STX  $d402          
$30d4: 8c 03 d4     STY  $d403          
l30d7:
$30d7: ad e6 24     LDA  $24e6          
$30da: f0 14        BEQ  l30f0          
$30dc: a6 f7        LDX  $f7            
$30de: a4 f8        LDY  $f8            
$30e0: 18           CLC                 
$30e1: ad e5 24     LDA  $24e5          
$30e4: f0 0c        BEQ  l30f2          
$30e6: ce e5 24     DEC  $24e5          
$30e9: ad e6 24     LDA  $24e6          
$30ec: 29 02        AND  #$02           
$30ee: d0 46        BNE  l3136          
l30f0:
$30f0: 60           RTS                 
l30f1:
$30f1: 18           CLC                 
l30f2:
$30f2: ad f6 24     LDA  $24f6          
$30f5: f0 0f        BEQ  l3106          
$30f7: ce f6 24     DEC  $24f6          
$30fa: 8a           TXA                 
$30fb: 6d d9 24     ADC  $24d9          
$30fe: aa           TAX                 
$30ff: 98           TYA                 
$3100: 6d da 24     ADC  $24da          
$3103: 4c 3f 31     JMP  $313f          
l3106:
$3106: ad f7 24     LDA  $24f7          
$3109: f0 0f        BEQ  l311a          
$310b: ce f7 24     DEC  $24f7          
$310e: 8a           TXA                 
$310f: 6d db 24     ADC  $24db          
$3112: aa           TAX                 
$3113: 98           TYA                 
$3114: 6d dc 24     ADC  $24dc          
$3117: 4c 3f 31     JMP  l313f          
l311a:
$311a: ad f8 24     LDA  $24f8          
$311d: f0 0f        BEQ  l312e          
$311f: ce f8 24     DEC  $24f8          
$3122: 8a           TXA                 
$3123: 6d dd 24     ADC  $24dd          
$3126: aa           TAX                 
$3127: 98           TYA                 
$3128: 6d de 24     ADC  $24de          
$312b: 4c 3f 31     JMP  l313f          
l312e:
$312e: ad f9 24     LDA  $24f9          
$3131: f0 18        BEQ  l314b          
$3133: ce f9 24     DEC  $24f9          
l3136:
$3136: 8a           TXA                 
$3137: 6d df 24     ADC  $24df          
$313a: aa           TAX                 
$313b: 98           TYA                 
$313c: 6d e0 24     ADC  $24e0          
l313f:
$313f: a8           TAY                 
l3140:
$3140: 8e 00 d4     STX  $d400          
$3143: 8c 01 d4     STY  $d401          
$3146: 86 f7        STX  $f7            
$3148: 84 f8        STY  $f8            
l314a:
$314a: 60           RTS                 
l314b:
$314b: ad e6 24     LDA  $24e6          
$314e: 29 81        AND  #$81           
$3150: f0 ee        BEQ  l3140          
$3152: 10 06        BPL  l315a          
$3154: 20 a5 27     JSR  l27a5          
$3157: 4c f1 30     JMP  $30f1          
l315a:
$315a: 20 af 27     JSR  $27af          
$315d: 4c f1 30     JMP  l30f1          
l3160:
$3160: ae 18 25     LDX  $2518          
$3163: f0 e5        BEQ  l314a          
$3165: ad 16 25     LDA  $2516          
$3168: 29 08        AND  #$08           
$316a: f0 16        BEQ  l3182          
$316c: a5 e7        LDA  $e7            
$316e: cd 17 25     CMP  $2517          
$3171: b0 3f        BCS  l31b2          
$3173: a9 00        LDA  #$00           
$3175: 8d 17 25     STA  $2517          
$3178: ad 16 25     LDA  $2516          
$317b: 29 f6        AND  #$f6           
$317d: 8d 16 25     STA  $2516          
$3180: d0 2d        BNE  l31af          
l3182:
$3182: ad 17 25     LDA  $2517          
$3185: d0 18        BNE  l319f          
$3187: ac 18 25     LDY  $2518          
$318a: c8           INY                 
$318b: f0 25        BEQ  l31b2          
$318d: ce 18 25     DEC  $2518          
$3190: d0 20        BNE  l31b2          
$3192: a2 06        LDX  #$06           
l3194:
$3194: 9d 07 d4     STA  $d407,x        
$3197: ca           DEX                 
$3198: 10 fa        BPL  l3194          
$319a: a9 01        LDA  #$01           
$319c: 4c 5c 30     JMP  $305c          
l319f:
$319f: ac 17 25     LDY  $2517          
$31a2: c8           INY                 
$31a3: f0 0d        BEQ  l31b2          
$31a5: ce 17 25     DEC  $2517          
$31a8: d0 08        BNE  l31b2          
$31aa: ad 16 25     LDA  $2516          
$31ad: 29 f6        AND  #$f6           
l31af:
$31af: 8d 0b d4     STA  $d40b          
l31b2:
$31b2: ad 0d 25     LDA  $250d          
$31b5: f0 59        BEQ  l3210          
$31b7: ad 0c 25     LDA  $250c          
$31ba: f0 06        BEQ  l31c2          
$31bc: ce 0c 25     DEC  $250c          
$31bf: 4c 10 32     JMP  l3210          
l31c2:
$31c2: 18           CLC                 
$31c3: a6 f3        LDX  $f3            
$31c5: a4 f4        LDY  $f4            
$31c7: ad 1d 25     LDA  $251d          
$31ca: f0 10        BEQ  l31dc          
$31cc: ce 1d 25     DEC  $251d          
$31cf: 8a           TXA                 
$31d0: 6d 0e 25     ADC  $250e          
$31d3: aa           TAX                 
$31d4: 98           TYA                 
$31d5: 6d 0f 25     ADC  $250f          
$31d8: a8           TAY                 
$31d9: 4c 06 32     JMP  $3206          
l31dc:
$31dc: ad 1e 25     LDA  $251e          
$31df: f0 10        BEQ  l31f1          
$31e1: ce 1e 25     DEC  $251e          
$31e4: 8a           TXA                 
$31e5: 6d 10 25     ADC  $2510          
$31e8: aa           TAX                 
$31e9: 98           TYA                 
$31ea: 6d 11 25     ADC  $2511          
$31ed: a8           TAY                 
$31ee: 4c 06 32     JMP  l3206          
l31f1:
$31f1: ad 0d 25     LDA  $250d          
$31f4: 29 81        AND  #$81           
$31f6: f0 0e        BEQ  l3206          
$31f8: 10 06        BPL  l3200          
$31fa: 20 dc 26     JSR  l26dc          
$31fd: 4c c2 31     JMP  l31c2          
l3200:
$3200: 20 e2 26     JSR  $26e2          
$3203: 4c c2 31     JMP  l31c2          
l3206:
$3206: 86 f3        STX  $f3            
$3208: 84 f4        STY  $f4            
$320a: 8e 09 d4     STX  $d409          
$320d: 8c 0a d4     STY  $d40a          
l3210:
$3210: ad 09 25     LDA  $2509          
$3213: f0 18        BEQ  l322d          
$3215: 29 08        AND  #$08           
$3217: d0 15        BNE  l322e          
$3219: a6 f9        LDX  $f9            
$321b: a4 fa        LDY  $fa            
$321d: 18           CLC                 
$321e: ad 08 25     LDA  $2508          
$3221: f0 41        BEQ  l3264          
$3223: ce 08 25     DEC  $2508          
$3226: ad 09 25     LDA  $2509          
$3229: 29 02        AND  #$02           
$322b: d0 7b        BNE  l32a8          
l322d:
$322d: 60           RTS                 
l322e:
$322e: ce 00 25     DEC  $2500          
$3231: d0 fa        BNE  l322d          
$3233: ac 02 25     LDY  $2502          
$3236: 8c 00 25     STY  $2500          
$3239: ac 08 25     LDY  $2508          
$323c: 10 03        BPL  l3241          
$323e: ac 07 25     LDY  $2507          
l3241:
$3241: ae 04 25     LDX  $2504          
$3244: 86 ef        STX  $ef            
$3246: ae 05 25     LDX  $2505          
$3249: 86 f0        STX  $f0            
$324b: ad 06 25     LDA  $2506          
$324e: 18           CLC                 
$324f: 71 ef        ADC  ($ef),y        
$3251: 88           DEY                 
$3252: 8c 08 25     STY  $2508          
$3255: a8           TAY                 
$3256: be 73 25     LDX  $2573,y        
$3259: b9 c4 25     LDA  $25c4,y        
$325c: 8e 07 d4     STX  $d407          
$325f: 8d 08 d4     STA  $d408          
$3262: 60           RTS                 
l3263:
$3263: 18           CLC                 
l3264:
$3264: ad 19 25     LDA  $2519          
$3267: f0 0f        BEQ  l3278          
$3269: ce 19 25     DEC  $2519          
$326c: 8a           TXA                 
$326d: 6d fc 24     ADC  $24fc          
$3270: aa           TAX                 
$3271: 98           TYA                 
$3272: 6d fd 24     ADC  $24fd          
$3275: 4c b1 32     JMP  $32b1          
l3278:
$3278: ad 1a 25     LDA  $251a          
$327b: f0 0f        BEQ  l328c          
$327d: ce 1a 25     DEC  $251a          
$3280: 8a           TXA                 
$3281: 6d fe 24     ADC  $24fe          
$3284: aa           TAX                 
$3285: 98           TYA                 
$3286: 6d ff 24     ADC  $24ff          
$3289: 4c b1 32     JMP  l32b1          
l328c:
$328c: ad 1b 25     LDA  $251b          
$328f: f0 0f        BEQ  l32a0          
$3291: ce 1b 25     DEC  $251b          
$3294: 8a           TXA                 
$3295: 6d 00 25     ADC  $2500          
$3298: aa           TAX                 
$3299: 98           TYA                 
$329a: 6d 01 25     ADC  $2501          
$329d: 4c b1 32     JMP  l32b1          
l32a0:
$32a0: ad 1c 25     LDA  $251c          
$32a3: f0 18        BEQ  l32bd          
$32a5: ce 1c 25     DEC  $251c          
l32a8:
$32a8: 8a           TXA                 
$32a9: 6d 02 25     ADC  $2502          
$32ac: aa           TAX                 
$32ad: 98           TYA                 
$32ae: 6d 03 25     ADC  $2503          
l32b1:
$32b1: a8           TAY                 
l32b2:
$32b2: 8e 07 d4     STX  $d407          
$32b5: 8c 08 d4     STY  $d408          
$32b8: 86 f9        STX  $f9            
$32ba: 84 fa        STY  $fa            
l32bc:
$32bc: 60           RTS                 
l32bd:
$32bd: ad 09 25     LDA  $2509          
$32c0: 29 81        AND  #$81           
$32c2: f0 ee        BEQ  l32b2          
$32c4: 10 06        BPL  l32cc          
$32c6: 20 d9 27     JSR  l27d9          
$32c9: 4c 63 32     JMP  $3263          
l32cc:
$32cc: 20 e3 27     JSR  $27e3          
$32cf: 4c 63 32     JMP  l3263          
l32d2:
$32d2: ae 3b 25     LDX  $253b          
$32d5: f0 e5        BEQ  l32bc          
$32d7: ad 39 25     LDA  $2539          
$32da: 29 08        AND  #$08           
$32dc: f0 16        BEQ  l32f4          
$32de: a5 e8        LDA  $e8            
$32e0: cd 3a 25     CMP  $253a          
$32e3: b0 3f        BCS  l3324          
$32e5: a9 00        LDA  #$00           
$32e7: 8d 3a 25     STA  $253a          
$32ea: ad 39 25     LDA  $2539          
$32ed: 29 f6        AND  #$f6           
$32ef: 8d 39 25     STA  $2539          
$32f2: d0 2d        BNE  l3321          
l32f4:
$32f4: ad 3a 25     LDA  $253a          
$32f7: d0 18        BNE  l3311          
$32f9: ac 3b 25     LDY  $253b          
$32fc: c8           INY                 
$32fd: f0 25        BEQ  l3324          
$32ff: ce 3b 25     DEC  $253b          
$3302: d0 20        BNE  l3324          
$3304: a2 06        LDX  #$06           
l3306:
$3306: 9d 0e d4     STA  $d40e,x        
$3309: ca           DEX                 
$330a: 10 fa        BPL  l3306          
$330c: a9 02        LDA  #$02           
$330e: 4c 5c 30     JMP  l305c          
l3311:
$3311: ac 3a 25     LDY  $253a          
$3314: c8           INY                 
$3315: f0 0d        BEQ  l3324          
$3317: ce 3a 25     DEC  $253a          
$331a: d0 08        BNE  l3324          
$331c: ad 39 25     LDA  $2539          
$331f: 29 f6        AND  #$f6           
l3321:
$3321: 8d 12 d4     STA  $d412          
l3324:
$3324: ad 30 25     LDA  $2530          
$3327: f0 5f        BEQ  l3388          
$3329: a5 fb        LDA  $fb            
$332b: 05 fc        ORA  $fc            
$332d: f0 59        BEQ  l3388          
$332f: ad 2f 25     LDA  $252f          
$3332: f0 06        BEQ  l333a          
$3334: ce 2f 25     DEC  $252f          
$3337: 4c 88 33     JMP  l3388          
l333a:
$333a: 18           CLC                 
$333b: a6 f5        LDX  $f5            
$333d: a4 f6        LDY  $f6            
$333f: ad 40 25     LDA  $2540          
$3342: f0 10        BEQ  l3354          
$3344: ce 40 25     DEC  $2540          
$3347: 8a           TXA                 
$3348: 6d 31 25     ADC  $2531          
$334b: aa           TAX                 
$334c: 98           TYA                 
$334d: 6d 32 25     ADC  l2532          
$3350: a8           TAY                 
$3351: 4c 7e 33     JMP  $337e          
l3354:
$3354: ad 41 25     LDA  $2541          
$3357: f0 10        BEQ  l3369          
$3359: ce 41 25     DEC  $2541          
$335c: 8a           TXA                 
$335d: 6d 33 25     ADC  $2533          
$3360: aa           TAX                 
$3361: 98           TYA                 
$3362: 6d 34 25     ADC  $2534          
$3365: a8           TAY                 
$3366: 4c 7e 33     JMP  l337e          
l3369:
$3369: ad 30 25     LDA  $2530          
$336c: 29 81        AND  #$81           
$336e: f0 0e        BEQ  l337e          
$3370: 10 06        BPL  l3378          
$3372: 20 f3 26     JSR  l26f3          
$3375: 4c 3a 33     JMP  l333a          
l3378:
$3378: 20 f9 26     JSR  $26f9          
$337b: 4c 3a 33     JMP  l333a          
l337e:
$337e: 86 f5        STX  $f5            
$3380: 84 f6        STY  $f6            
$3382: 8e 10 d4     STX  $d410          
$3385: 8c 11 d4     STY  $d411          
l3388:
$3388: ad 2c 25     LDA  $252c          
$338b: f0 1a        BEQ  l33a7          
$338d: a5 fb        LDA  $fb            
$338f: 05 fc        ORA  $fc            
$3391: f0 14        BEQ  l33a7          
$3393: a6 fb        LDX  $fb            
$3395: a4 fc        LDY  $fc            
$3397: 18           CLC                 
$3398: ad 2b 25     LDA  $252b          
$339b: f0 0c        BEQ  l33a9          
$339d: ce 2b 25     DEC  $252b          
$33a0: ad 2c 25     LDA  $252c          
$33a3: 29 02        AND  #$02           
$33a5: d0 46        BNE  l33ed          
l33a7:
$33a7: 60           RTS                 
l33a8:
$33a8: 18           CLC                 
l33a9:
$33a9: ad 3c 25     LDA  $253c          
$33ac: f0 0f        BEQ  l33bd          
$33ae: ce 3c 25     DEC  $253c          
$33b1: 8a           TXA                 
$33b2: 6d 1f 25     ADC  $251f          
$33b5: aa           TAX                 
$33b6: 98           TYA                 
$33b7: 6d 20 25     ADC  $2520          
$33ba: 4c f6 33     JMP  $33f6          
l33bd:
$33bd: ad 3d 25     LDA  $253d          
$33c0: f0 0f        BEQ  l33d1          
$33c2: ce 3d 25     DEC  $253d          
$33c5: 8a           TXA                 
$33c6: 6d 21 25     ADC  $2521          
$33c9: aa           TAX                 
$33ca: 98           TYA                 
$33cb: 6d 22 25     ADC  l2522          
$33ce: 4c f6 33     JMP  l33f6          
l33d1:
$33d1: ad 3e 25     LDA  $253e          
$33d4: f0 0f        BEQ  l33e5          
$33d6: ce 3e 25     DEC  $253e          
$33d9: 8a           TXA                 
$33da: 6d 23 25     ADC  $2523          
$33dd: aa           TAX                 
$33de: 98           TYA                 
$33df: 6d 24 25     ADC  $2524          
$33e2: 4c f6 33     JMP  l33f6          
l33e5:
$33e5: ad 3f 25     LDA  $253f          
$33e8: f0 18        BEQ  l3402          
$33ea: ce 3f 25     DEC  $253f          
l33ed:
$33ed: 8a           TXA                 
$33ee: 6d 25 25     ADC  $2525          
$33f1: aa           TAX                 
$33f2: 98           TYA                 
$33f3: 6d 26 25     ADC  $2526          
l33f6:
$33f6: a8           TAY                 
l33f7:
$33f7: 8e 0e d4     STX  $d40e          
$33fa: 8c 0f d4     STY  $d40f          
$33fd: 86 fb        STX  $fb            
$33ff: 84 fc        STY  $fc            
$3401: 60           RTS                 
l3402:
$3402: ad 2c 25     LDA  $252c          
$3405: 29 81        AND  #$81           
$3407: f0 ee        BEQ  l33f7          
$3409: 10 06        BPL  l3411          
$340b: 20 09 28     JSR  l2809          
$340e: 4c a8 33     JMP  $33a8          
l3411:
$3411: 20 13 28     JSR  $2813          
$3414: 4c a8 33     JMP  l33a8          
$3417: ad 45 25     LDA  $2545          
$341a: 0d 46 25     ORA  $2546          
$341d: 0d 47 25     ORA  $2547          
$3420: 0d f5 24     ORA  $24f5          
$3423: 0d 18 25     ORA  $2518          
$3426: 0d 3b 25     ORA  $253b          
$3429: 60           RTS                 
$342a: b0 39        BCS  l3465          
$342c: d3 39        DCP  ($39),y        
$342e: 23 3a        RLA  ($3a,x)        
$3430: 09 68        ORA  #$68           
$3432: 3a           NOP                 
$3433: 66 3a        ROR  $3a            
$3435: 46 3a        LSR  $3a            
$3437: 0b 9c        ANC  #$9c           
$3439: 3a           NOP                 
$343a: c1 3a        CMP  ($3a,x)        
$343c: de 3a 09     DEC  $093a,x        
$343f: dd dd dd     CMP  $dddd,x        
$3442: dd dd dd     CMP  $dddd,x        
$3445: dd 5a 39     CMP  $395a,x        
$3448: 7a           NOP                 
$3449: 39 87 39     AND  $3987,y        
$344c: 0d 59 38     ORA  $3859          
$344f: 8a           TXA                 
$3450: 38           SEC                 
$3451: dd 38 03     CMP  $0338,x        
$3454: 04 39        NOP  $39            
$3456: 16 39        ASL  $39,x          
$3458: 2f 39 0b     RLA  $0b39          
$345b: 07 3b        SLO  $3b            
$345d: 31 3b        AND  ($3b),y        
$345f: 6d 3b 07     ADC  $073b          
$3462: a3 34        LAX  ($34,x)        
$3464: 34 35        NOP  $35,x          
$3466: 5d 37 04     EOR  $0437,x        
$3469: 14 00        NOP  z00,x          
$346b: ec ff 14     CPX  $14ff          
$346e: 00           BRK                 
$346f: 00           BRK                 
$3470: 00           BRK                 
$3471: 03 06        SLO  ($06,x)        
$3473: 03 00        SLO  (z00,x)        
$3475: 1e 05 32     ASL  $3205,x        
$3478: 32           JAM                 
$3479: 0a           ASL                 
$347a: 05 0a        ORA  $0a            
$347c: 00           BRK                 
$347d: f6 ff        INC  $ff,x          
$347f: 00           BRK                 
$3480: 08           PHP                 
$3481: 41 14        EOR  ($14,x)        
$3483: c8           INY                 
$3484: ff fa 23     ISC  $23fa,x        
$3487: 00           BRK                 
$3488: dd ff 23     CMP  $23ff,x        
$348b: 00           BRK                 
$348c: 00           BRK                 
$348d: 00           BRK                 
$348e: 03 05        SLO  ($05,x)        
$3490: 02           JAM                 
$3491: 00           BRK                 
$3492: 0a           ASL                 
$3493: 05 00        ORA  z00            
$3495: 00           BRK                 
$3496: 00           BRK                 
$3497: 00           BRK                 
$3498: 00           BRK                 
$3499: 00           BRK                 
$349a: 00           BRK                 
$349b: 00           BRK                 
$349c: 00           BRK                 
$349d: 00           BRK                 
$349e: 19 a4 f9     ORA  $f9a4,y        
$34a1: 14 fe        NOP  $fe,x          
$34a3: d2           JAM                 
$34a4: 1c 69 34     NOP  $3469,x        
$34a7: 5f 20 1d     SRE  $1d20,x        
$34aa: 20 cc 03     JSR  $03cc          
$34ad: 5f 20 ce     SRE  $ce20,x        
$34b0: 1f 20 cc     SLO  $cc20,x        
$34b3: 03 5f        SLO  ($5f,x)        
$34b5: 20 ce de     JSR  $dece          
$34b8: 0c 80 07     NOP  $0780          
$34bb: de 06 3c     DEC  $3c06,x        
$34be: 00           BRK                 
$34bf: c6 f4        DEC  $f4            
$34c1: c7 36        DCP  $36            
$34c3: ca           DEX                 
$34c4: 1a           NOP                 
$34c5: 8d c6 00     STA  $00c6          
$34c8: c9 36        CMP  #$36           
$34ca: d6 1b        DEC  $1b,x          
$34cc: 01 d2        ORA  ($d2,x)        
$34ce: 1c 86 34     NOP  $3486,x        
$34d1: cc 04 5f     CPY  $5f04          
$34d4: 20 ce cc     JSR  $ccce          
$34d7: 04 43        NOP  $43            
$34d9: 10 42        BPL  l351d          
$34db: 10 40        BPL  l351d          
$34dd: 10 3e        BPL  l351d          
$34df: 10 3c        BPL  l351d          
$34e1: 10 3b        BPL  l351e          
$34e3: 10 39        BPL  l351e          
$34e5: 10 37        BPL  l351e          
$34e7: 10 ce        BPL  l34b7          
$34e9: c0 14        CPY  #$14           
$34eb: 00           BRK                 
$34ec: ec ff 14     CPX  $14ff          
$34ef: 00           BRK                 
$34f0: 00           BRK                 
$34f1: 00           BRK                 
$34f2: 03 06        SLO  ($06,x)        
$34f4: 03 00        SLO  (z00,x)        
$34f6: 0a           ASL                 
$34f7: 05 32        ORA  $32            
$34f9: 32           JAM                 
$34fa: 14 05        NOP  $05,x          
$34fc: 0a           ASL                 
$34fd: 00           BRK                 
$34fe: f6 ff        INC  $ff,x          
$3500: 00           BRK                 
$3501: 08           PHP                 
$3502: 41 14        EOR  ($14,x)        
$3504: c4 ff        CPY  $ff            
$3506: 05 0c        ORA  $0c            
$3508: 00           BRK                 
$3509: 03 09        SLO  ($09,x)        
$350b: 0c 00 03     NOP  $0300          
$350e: 07 0c        SLO  $0c            
$3510: 00           BRK                 
$3511: 05 0b        ORA  $0b            
$3513: 0c 00 05     NOP  $0500          
$3516: 09 00        ORA  #$00           
$3518: 00           BRK                 
$3519: 00           BRK                 
$351a: 00           BRK                 
$351b: 01 00        ORA  (z00,x)        
l351d:
$351d: 01 00        ORA  (z00,x)        
$351f: 07 35        SLO  $35            
$3521: 00           BRK                 
$3522: 03 00        SLO  (z00,x)        
$3524: 08           PHP                 
$3525: 32           JAM                 
$3526: 32           JAM                 
$3527: 14 00        NOP  z00,x          
$3529: 0a           ASL                 
$352a: 00           BRK                 
$352b: f6 ff        INC  $ff,x          
$352d: 00           BRK                 
$352e: 08           PHP                 
$352f: 41 01        EOR  ($01,x)        
$3531: f7 04        ISC  $04,x          
$3533: 14 d2        NOP  $d2,x          
$3535: 1c ea 34     NOP  $34ea,x        
$3538: 5f 20 1d     SRE  $1d20,x        
$353b: 20 cc 03     JSR  l03cc          
$353e: 5f 20 ce     SRE  $ce20,x        
$3541: 1f 20 cc     SLO  $cc20,x        
$3544: 03 5f        SLO  ($5f,x)        
$3546: 20 ce de     JSR  ldece          
$3549: 0c 80 07     NOP  $0780          
$354c: de 06 28     DEC  $2806,x        
$354f: 00           BRK                 
$3550: d2           JAM                 
$3551: 1c 17 35     NOP  $3517,x        
$3554: 5f 20 cc     SRE  $cc20,x        
$3557: 02           JAM                 
$3558: dc 08 07     NOP  $0708,x        
$355b: 35 cc        AND  $cc,x          
$355d: 10 39        BPL  l3598          
$355f: 02           JAM                 
$3560: ce dc 08     DEC  $08dc          
$3563: 0b 35        ANC  #$35           
$3565: cc 10 39     CPY  $3910          
$3568: 02           JAM                 
$3569: ce dc 08     DEC  $08dc          
$356c: 0f 35 cc     SLO  $cc35          
$356f: 10 37        BPL  l35a8          
$3571: 02           JAM                 
$3572: ce dc 08     DEC  $08dc          
$3575: 13 35        SLO  ($35),y        
$3577: cc 10 37     CPY  $3710          
$357a: 02           JAM                 
$357b: ce ce cc     DEC  lccce          
$357e: 07 dc        SLO  $dc            
$3580: 08           PHP                 
$3581: 07 35        SLO  $35            
$3583: cc 03 ca     CPY  $ca03          
$3586: 0d 08 39     ORA  $3908          
$3589: 02           JAM                 
$358a: ca           DEX                 
$358b: 0d 00 39     ORA  $3900          
$358e: 02           JAM                 
$358f: ce 45 02     DEC  $0245          
$3592: ca           DEX                 
$3593: 0d 08 39     ORA  $3908          
$3596: 02           JAM                 
$3597: ca           DEX                 
l3598:
$3598: 0d 00 45     ORA  $4500          
$359b: 02           JAM                 
$359c: ca           DEX                 
$359d: 0d 08 39     ORA  $3908          
$35a0: 02           JAM                 
$35a1: ca           DEX                 
$35a2: 0d 00 39     ORA  $3900          
$35a5: 02           JAM                 
$35a6: 45 02        EOR  $02            
l35a8:
$35a8: ca           DEX                 
$35a9: 0d 08 39     ORA  $3908          
$35ac: 02           JAM                 
$35ad: ca           DEX                 
$35ae: 0d 00 39     ORA  $3900          
$35b1: 02           JAM                 
$35b2: 39 02 39     AND  $3902,y        
$35b5: 02           JAM                 
$35b6: dc 08 0b     NOP  $0b08,x        
$35b9: 35 ca        AND  $ca,x          
$35bb: 0d 08 39     ORA  $3908          
$35be: 02           JAM                 
$35bf: ca           DEX                 
$35c0: 0d 00 39     ORA  $3900          
$35c3: 02           JAM                 
$35c4: ca           DEX                 
$35c5: 0d 08 cc     ORA  $cc08          
$35c8: 04 39        NOP  $39            
$35ca: 02           JAM                 
$35cb: ce cc 02     DEC  $02cc          
$35ce: ca           DEX                 
$35cf: 0d 00 45     ORA  $4500          
$35d2: 02           JAM                 
$35d3: ca           DEX                 
$35d4: 0d 08 39     ORA  $3908          
$35d7: 02           JAM                 
$35d8: ce 39 02     DEC  $0239          
$35db: ca           DEX                 
$35dc: 0d 00 45     ORA  $4500          
$35df: 02           JAM                 
$35e0: ca           DEX                 
$35e1: 0d 08 39     ORA  $3908          
$35e4: 02           JAM                 
$35e5: ca           DEX                 
$35e6: 0d 00 45     ORA  $4500          
$35e9: 02           JAM                 
$35ea: 39 02 39     AND  $3902,y        
$35ed: 02           JAM                 
$35ee: dc 08 0f     NOP  $0f08,x        
$35f1: 35 cc        AND  $cc,x          
$35f3: 03 ca        SLO  ($ca,x)        
$35f5: 0d 08 37     ORA  $3708          
$35f8: 02           JAM                 
$35f9: ca           DEX                 
$35fa: 0d 00 37     ORA  $3700          
$35fd: 02           JAM                 
$35fe: ce 48 02     DEC  $0248          
$3601: ca           DEX                 
$3602: 0d 08 37     ORA  $3708          
$3605: 02           JAM                 
$3606: ca           DEX                 
$3607: 0d 00 48     ORA  $4800          
$360a: 02           JAM                 
$360b: ca           DEX                 
$360c: 0d 08 37     ORA  $3708          
$360f: 02           JAM                 
$3610: ca           DEX                 
$3611: 0d 00 37     ORA  $3700          
$3614: 02           JAM                 
$3615: 48           PHA                 
$3616: 02           JAM                 
$3617: ca           DEX                 
$3618: 0d 08 37     ORA  $3708          
$361b: 02           JAM                 
$361c: ca           DEX                 
$361d: 0d 00 37     ORA  $3700          
$3620: 02           JAM                 
$3621: 37 02        RLA  $02,x          
$3623: 37 02        RLA  $02,x          
$3625: dc 08 13     NOP  $1308,x        
$3628: 35 ca        AND  $ca,x          
$362a: 0d 08 37     ORA  $3708          
$362d: 02           JAM                 
$362e: ca           DEX                 
$362f: 0d 00 37     ORA  $3700          
$3632: 02           JAM                 
$3633: ca           DEX                 
$3634: 0d 08 cc     ORA  $cc08          
$3637: 04 37        NOP  $37            
$3639: 02           JAM                 
$363a: ce cc 02     DEC  $02cc          
$363d: ca           DEX                 
$363e: 0d 00 48     ORA  $4800          
$3641: 02           JAM                 
$3642: ca           DEX                 
$3643: 0d 08 37     ORA  $3708          
$3646: 02           JAM                 
$3647: ce 37 02     DEC  $0237          
$364a: ca           DEX                 
$364b: 0d 00 48     ORA  $4800          
$364e: 02           JAM                 
$364f: ca           DEX                 
$3650: 0d 08 37     ORA  $3708          
$3653: 02           JAM                 
$3654: ca           DEX                 
$3655: 0d 00 48     ORA  $4800          
$3658: 02           JAM                 
$3659: 37 02        RLA  $02,x          
$365b: 37 02        RLA  $02,x          
$365d: ce c0 4d     DEC  $4dc0          
$3660: 01 e2        ORA  ($e2,x)        
$3662: ff 00 00     ISC  z00,x          
$3665: 00           BRK                 
$3666: 00           BRK                 
$3667: 03 14        SLO  ($14,x)        
$3669: 00           BRK                 
$366a: 00           BRK                 
$366b: 00           BRK                 
$366c: 04 01        NOP  $01            
$366e: 00           BRK                 
$366f: 14 00        NOP  z00,x          
$3671: ec ff 14     CPX  $14ff          
$3674: 00           BRK                 
$3675: 1c 00 03     NOP  $0300,x        
$3678: 06 03        ASL  $03            
$367a: 00           BRK                 
$367b: 28           PLP                 
$367c: 07 32        SLO  $32            
$367e: 32           JAM                 
$367f: 28           PLP                 
$3680: 05 0a        ORA  $0a            
$3682: 00           BRK                 
$3683: f6 ff        INC  $ff,x          
$3685: 00           BRK                 
$3686: 08           PHP                 
$3687: 41 14        EOR  ($14,x)        
$3689: c8           INY                 
$368a: ff 32 4d     ISC  $4d32,x        
$368d: 01 d3        ORA  ($d3,x)        
$368f: ff fb ff     ISC  $fffb,x        
$3692: ff ff 03     ISC  $03ff,x        
$3695: 14 0a        NOP  $0a,x          
$3697: 32           JAM                 
$3698: 00           BRK                 
$3699: 04 01        NOP  $01            
$369b: 00           BRK                 
$369c: 19 00 e7     ORA  $e700,y        
$369f: ff 19 00     ISC  $0019,x        
$36a2: 00           BRK                 
$36a3: 00           BRK                 
$36a4: 02           JAM                 
$36a5: 04 02        NOP  $02            
$36a7: 00           BRK                 
$36a8: 06 05        ASL  $05            
$36aa: 32           JAM                 
$36ab: 32           JAM                 
$36ac: 00           BRK                 
$36ad: 05 14        ORA  $14            
$36af: 00           BRK                 
$36b0: ec ff 00     CPX  $00ff          
$36b3: 06 41        ASL  $41            
$36b5: 14 e8        NOP  $e8,x          
$36b7: 1e 28 20     ASL  $2028,x        
$36ba: 00           BRK                 
$36bb: 00           BRK                 
$36bc: 00           BRK                 
$36bd: 00           BRK                 
$36be: 00           BRK                 
$36bf: 00           BRK                 
$36c0: 00           BRK                 
$36c1: ff 00 00     ISC  z00,x          
$36c4: 00           BRK                 
$36c5: 0a           ASL                 
$36c6: 04 5f        NOP  $5f            
$36c8: 20 21 20     JSR  $2021          
$36cb: 5f 1a 23     SRE  $231a,x        
$36ce: 06 24        ASL  $24            
$36d0: 20 5f 1a     JSR  $1a5f          
$36d3: 26 02        ROL  $02            
$36d5: 28           PLP                 
$36d6: 02           JAM                 
$36d7: 24 02        BIT  $02            
$36d9: 21 20        AND  ($20,x)        
$36db: 5f 1a 23     SRE  $231a,x        
$36de: 06 24        ASL  $24            
$36e0: 20 5f 20     JSR  $205f          
$36e3: c0 21        CPY  #$21           
$36e5: 04 21        NOP  $21            
$36e7: 04 2d        NOP  $2d            
$36e9: 01 50        ORA  ($50,x)        
$36eb: 01 21        ORA  ($21,x)        
$36ed: 04 21        NOP  $21            
$36ef: 08           PHP                 
$36f0: 21 02        AND  ($02,x)        
$36f2: 2d 02 1c     AND  $1c02          
$36f5: 02           JAM                 
$36f6: 1f 04 21     SLO  $2104,x        
$36f9: 04 21        NOP  $21            
$36fb: 02           JAM                 
$36fc: 21 02        AND  ($02,x)        
$36fe: 2d 01 50     AND  $5001          
$3701: 01 21        ORA  ($21,x)        
$3703: 04 21        NOP  $21            
$3705: 04 21        NOP  $21            
$3707: 04 21        NOP  $21            
$3709: 02           JAM                 
l370a:
$370a: 2d 02 21     AND  $2102          
$370d: 02           JAM                 
$370e: 23 04        RLA  ($04,x)        
$3710: 24 04        BIT  $04            
$3712: 24 02        BIT  $02            
$3714: 24 02        BIT  $02            
l3716:
$3716: 30 01        BMI  l3719          
$3718: 50 03        BVC  l371d          
$371a: 24 02        BIT  $02            
$371c: 24 04        BIT  $04            
$371e: 24 02        BIT  $02            
$3720: 24 02        BIT  $02            
$3722: 24 02        BIT  $02            
$3724: 30 02        BMI  l3728          
$3726: f0 b9        BEQ  l36e1          
l3728:
$3728: 36 1f        ROL  $1f,x          
$372a: 06 f0        ASL  $f0            
$372c: 9c 36 24     SHY  $2436,x        
$372f: 02           JAM                 
$3730: 18           CLC                 
$3731: 02           JAM                 
$3732: 24 02        BIT  $02            
$3734: 18           CLC                 
$3735: 02           JAM                 
$3736: 30 04        BMI  l373c          
$3738: 24 02        BIT  $02            
$373a: 24 04        BIT  $04            
l373c:
$373c: 24 02        BIT  $02            
$373e: 34 02        NOP  $02,x          
$3740: 24 02        BIT  $02            
$3742: 30 02        BMI  l3746          
$3744: 28           PLP                 
$3745: 02           JAM                 
l3746:
$3746: 2b 02        ANC  #$02           
$3748: 2d 02 c0     AND  $c002          
$374b: a9 10        LDA  #$10           
$374d: 8d ff 3f     STA  $3fff          
$3750: 60           RTS                 
$3751: a9 00        LDA  #$00           
$3753: 8d ff 3f     STA  $3fff          
$3756: 8d 17 d4     STA  $d417          
$3759: 8d 42 25     STA  $2542          
$375c: 60           RTS                 
$375d: e2 8c        NOP  #$8c           
$375f: 36 d2        ROL  $d2,x          
$3761: 1c 6f 36     NOP  $366f,x        
$3764: bf 58 65     LAX  $6558,y        
$3767: 28           PLP                 
$3768: cc 04 5f     CPY  $5f04          
$376b: 20 ce ca     JSR  $cace          
$376e: 0d 05 1f     ORA  $1f05          
$3771: 20 cc 03     JSR  l03cc          
$3774: 5f 20 ce     SRE  $ce20,x        
$3777: de 0c 80     DEC  $800c,x        
$377a: 07 de        SLO  $de            
$377c: 06 14        ASL  $14            
$377e: 00           BRK                 
$377f: ca           DEX                 
l3780:
$3780: 0d 05 c2     ORA  $c205          
$3783: c7 36        DCP  $36            
$3785: d2           JAM                 
$3786: 1c 9c 36     NOP  $369c,x        
$3789: e0 d8        CPX  #$d8           
$378b: 4b 37        ALR  #$37           
$378d: c2 e4        NOP  #$e4           
$378f: 36 c2        ROL  $c2,x          
$3791: e4 36        CPX  $36            
$3793: d2           JAM                 
$3794: 1c 86 34     NOP  $3486,x        
$3797: e2 5f        NOP  #$5f           
$3799: 36 cc        ROL  $cc,x          
$379b: 03 5f        SLO  ($5f,x)        
$379d: 20 ce cc     JSR  lccce          
$37a0: 02           JAM                 
$37a1: 43 10        SRE  ($10,x)        
$37a3: 42           JAM                 
$37a4: 10 40        BPL  l37e6          
$37a6: 10 3e        BPL  l37e6          
$37a8: 10 3c        BPL  l37e6          
$37aa: 10 3b        BPL  l37e7          
$37ac: 10 39        BPL  l37e7          
$37ae: 10 37        BPL  l37e7          
$37b0: 10 ce        BPL  l3780          
$37b2: 43 10        SRE  ($10,x)        
$37b4: a2 17        LDX  #$17           
$37b6: e2 8c        NOP  #$8c           
$37b8: 36 d2        ROL  $d2,x          
$37ba: 1c 6f 36     NOP  $366f,x        
$37bd: bf 01 65     LAX  $6501,y        
$37c0: 28           PLP                 
$37c1: d2           JAM                 
$37c2: 1c 9c 36     NOP  $369c,x        
$37c5: c2 e4        NOP  #$e4           
$37c7: 36 c2        ROL  $c2,x          
$37c9: e4 36        CPX  $36            
$37cb: d8           CLD                 
$37cc: 51 37        EOR  ($37),y        
$37ce: 5f 10 cc     SRE  $cc10,x        
$37d1: 0a           ASL                 
$37d2: 5f 20 ce     SRE  $ce20,x        
$37d5: c0 1e        CPY  #$1e           
$37d7: 00           BRK                 
$37d8: e2 ff        NOP  #$ff           
$37da: 1e 00 00     ASL  z00,x          
$37dd: 00           BRK                 
$37de: 03 05        SLO  ($05,x)        
$37e0: 02           JAM                 
$37e1: 00           BRK                 
$37e2: 08           PHP                 
$37e3: 05 00        ORA  z00            
$37e5: 00           BRK                 
l37e6:
$37e6: 00           BRK                 
l37e7:
$37e7: 00           BRK                 
$37e8: 00           BRK                 
$37e9: 00           BRK                 
$37ea: 00           BRK                 
$37eb: 00           BRK                 
$37ec: 00           BRK                 
$37ed: 08           PHP                 
$37ee: 49 06        EOR  #$06           
$37f0: 99 04 28     STA  l2804,y        
$37f3: 37 04        RLA  $04,x          
$37f5: 39 02 3a     AND  $3a02,y        
$37f8: 02           JAM                 
$37f9: 39 03 5f     AND  $5f03,y        
$37fc: 01 37        ORA  ($37,x)        
$37fe: 03 5f        SLO  ($5f,x)        
$3800: 01 c0        ORA  ($c0,x)        
$3802: 39 03 5f     AND  $5f03,y        
$3805: 01 3e        ORA  ($3e,x)        
$3807: 03 5f        SLO  ($5f,x)        
l3809:
$3809: 01 39        ORA  ($39,x)        
$380b: 07 5f        SLO  $5f            
$380d: 01 c0        ORA  ($c0,x)        
$380f: c2 f3        NOP  #$f3           
$3811: 37 c2        RLA  $c2,x          
$3813: 02           JAM                 
$3814: 38           SEC                 
$3815: c2 f3        NOP  #$f3           
$3817: 37 37        RLA  $37,x          
$3819: 04 36        NOP  $36            
$381b: 04 37        NOP  $37            
$381d: 04 39        NOP  $39            
$381f: 04 c2        NOP  $c2            
$3821: f3 37        ISC  ($37),y        
$3823: c2 02        NOP  #$02           
$3825: 38           SEC                 
$3826: 3a           NOP                 
$3827: 04 3c        NOP  $3c            
$3829: 02           JAM                 
$382a: 3e 02 3c     ROL  $3c02,x        
$382d: 03 5f        SLO  ($5f,x)        
$382f: 01 3a        ORA  ($3a,x)        
$3831: 03 5f        SLO  ($5f,x)        
$3833: 01 3c        ORA  ($3c,x)        
$3835: 03 5f        SLO  ($5f,x)        
$3837: 01 41        ORA  ($41,x)        
$3839: 03 5f        SLO  ($5f,x)        
$383b: 01 3c        ORA  ($3c,x)        
$383d: 07 5f        SLO  $5f            
$383f: 01 cc        ORA  ($cc,x)        
$3841: 02           JAM                 
$3842: cc 03 45     CPY  $4503          
$3845: 02           JAM                 
$3846: 45 02        EOR  $02            
$3848: 5f 04 ce     SRE  $ce04,x        
$384b: 45 02        EOR  $02            
$384d: 43 02        SRE  ($02,x)        
$384f: 41 02        EOR  ($02,x)        
$3851: 3c 02 3e     NOP  $3e02,x        
$3854: 1c 5f 04     NOP  $045f,x        
$3857: ce c0 d2     DEC  $d2c0          
$385a: 1c d6 37     NOP  $37d6,x        
$385d: bf 01 cc     LAX  $cc01,y        
$3860: 04 c2        NOP  $c2            
$3862: 0f 38 ce     SLO  $ce38          
$3865: cc 40 5f     CPY  $5f40          
$3868: 04 ce        NOP  $ce            
$386a: c4 5f        CPY  $5f            
$386c: 38           SEC                 
$386d: 1e 00 e2     ASL  $e200,x        
$3870: ff 1e 00     ISC  $001e,x        
$3873: 00           BRK                 
$3874: 00           BRK                 
$3875: 02           JAM                 
$3876: 04 02        NOP  $02            
$3878: 00           BRK                 
$3879: 06 05        ASL  $05            
$387b: 00           BRK                 
$387c: 00           BRK                 
$387d: 00           BRK                 
$387e: 00           BRK                 
$387f: 00           BRK                 
$3880: 00           BRK                 
$3881: 00           BRK                 
$3882: 00           BRK                 
$3883: 00           BRK                 
$3884: 08           PHP                 
$3885: 29 06        AND  #$06           
$3887: 99 04 28     STA  l2804,y        
$388a: d2           JAM                 
$388b: 1c 6d 38     NOP  $386d,x        
$388e: bf 01 cc     LAX  $cc01,y        
$3891: 03 c2        SLO  ($c2,x)        
$3893: 0f 38 5f     SLO  $5f38          
$3896: 02           JAM                 
$3897: ce cc fa     DEC  $facc          
$389a: 5f 01 ce     SRE  $ce01,x        
$389d: c2 0f        NOP  #$0f           
$389f: 38           SEC                 
$38a0: c4 90        CPY  $90            
$38a2: 38           SEC                 
$38a3: 00           BRK                 
$38a4: 00           BRK                 
$38a5: 00           BRK                 
$38a6: 00           BRK                 
$38a7: 00           BRK                 
$38a8: 00           BRK                 
$38a9: 00           BRK                 
$38aa: 00           BRK                 
$38ab: 00           BRK                 
$38ac: 00           BRK                 
$38ad: 00           BRK                 
$38ae: 00           BRK                 
$38af: 00           BRK                 
$38b0: 00           BRK                 
$38b1: ff 00 01     ISC  $0100,x        
$38b4: 04 64        NOP  $64            
$38b6: 00           BRK                 
$38b7: 00           BRK                 
$38b8: 00           BRK                 
$38b9: 00           BRK                 
$38ba: 02           JAM                 
$38bb: 41 06        EOR  ($06,x)        
$38bd: 48           PHA                 
$38be: 0a           ASL                 
$38bf: 14 cc        NOP  $cc,x          
$38c1: 02           JAM                 
$38c2: 00           BRK                 
$38c3: 02           JAM                 
$38c4: 00           BRK                 
$38c5: 02           JAM                 
$38c6: 0c 02 0c     NOP  $0c02          
$38c9: 02           JAM                 
$38ca: ce c0 c6     DEC  $c6c0          
$38cd: 1f c0 38     SLO  $38c0,x        
$38d0: c6 1d        DEC  $1d            
$38d2: c0 38        CPY  #$38           
$38d4: c6 1b        DEC  $1b            
$38d6: c0 38        CPY  #$38           
$38d8: c6 1a        DEC  $1a            
$38da: c0 38        CPY  #$38           
$38dc: c0 d2        CPY  #$d2           
$38de: 1c a3 38     NOP  $38a3,x        
$38e1: bf 01 c2     LAX  $c201,y        
$38e4: cc 38 c6     CPY  $c638          
$38e7: 1f c0 38     SLO  $38c0,x        
$38ea: c6 1d        DEC  $1d            
$38ec: c0 38        CPY  #$38           
$38ee: c6 1b        DEC  $1b            
$38f0: c0 38        CPY  #$38           
$38f2: c6 1d        DEC  $1d            
$38f4: c0 38        CPY  #$38           
$38f6: c2 cc        NOP  #$cc           
$38f8: 38           SEC                 
$38f9: c2 cc        NOP  #$cc           
$38fb: 38           SEC                 
$38fc: c4 e3        CPY  $e3            
$38fe: 38           SEC                 
$38ff: 11 23        ORA  ($23),y        
$3901: e4 14        CPX  $14            
$3903: 0a           ASL                 
$3904: d4 ff        NOP  $ff,x          
$3906: 38           SEC                 
$3907: bf 15 37     LAX  $3715,y        
$390a: 01 3d        ORA  ($3d,x)        
$390c: 01 3e        ORA  ($3e,x)        
$390e: 01 41        ORA  ($41,x)        
$3910: 01 43        ORA  ($43,x)        
$3912: 01 47        ORA  ($47,x)        
$3914: 01 c0        ORA  ($c0,x)        
$3916: d4 ff        NOP  $ff,x          
$3918: 38           SEC                 
$3919: bf 0b 37     LAX  $370b,y        
$391c: 01 3d        ORA  ($3d,x)        
$391e: 01 3e        ORA  ($3e,x)        
$3920: 01 41        ORA  ($41,x)        
$3922: 01 43        ORA  ($43,x)        
$3924: 01 47        ORA  ($47,x)        
$3926: 01 4a        ORA  ($4a,x)        
$3928: 01 c0        ORA  ($c0,x)        
$392a: 41 24        EOR  ($24,x)        
$392c: a4 14        LDY  $14            
$392e: 04 d4        NOP  $d4            
$3930: 2a           ROL                 
$3931: 39 dc 16     AND  $16dc,y        
$3934: 00           BRK                 
$3935: 08           PHP                 
$3936: bf 01 37     LAX  $3701,y        
$3939: 01 3d        ORA  ($3d,x)        
$393b: 01 3e        ORA  ($3e,x)        
$393d: 01 41        ORA  ($41,x)        
$393f: 01 43        ORA  ($43,x)        
$3941: 01 47        ORA  ($47,x)        
$3943: 01 4a        ORA  ($4a,x)        
$3945: 01 c0        ORA  ($c0,x)        
$3947: eb f2        SBC  #$f2           
$3949: 00           BRK                 
$394a: 00           BRK                 
$394b: 15 0d        ORA  $0d,x          
$394d: 00           BRK                 
$394e: 00           BRK                 
$394f: 01 03        ORA  ($03,x)        
$3951: 01 09        ORA  ($09,x)        
$3953: 09 05        ORA  #$05           
$3955: 19 13 e4     ORA  $e413,y        
$3958: 02           JAM                 
$3959: 0a           ASL                 
$395a: d4 55        NOP  $55,x          
$395c: 39 bf 1b     AND  $1bbf,y        
$395f: 3a           NOP                 
$3960: 01 35        ORA  ($35,x)        
$3962: 01 37        ORA  ($37,x)        
$3964: 01 32        ORA  ($32,x)        
$3966: 01 35        ORA  ($35,x)        
$3968: 01 30        ORA  ($30,x)        
$396a: 01 32        ORA  ($32,x)        
$396c: 01 2e        ORA  ($2e,x)        
$396e: 01 f0        ORA  ($f0,x)        
$3970: 47 39        SRE  $39            
$3972: 2b 03        ANC  #$03           
$3974: ca           DEX                 
$3975: 0d 00 2b     ORA  $2b00          
$3978: 02           JAM                 
$3979: c0 d4        CPY  #$d4           
$397b: 55 39        EOR  $39,x          
$397d: bf 04 c4     LAX  $c404,y        
$3980: 5f 39 49     SRE  $4939,x        
$3983: 24 a4        BIT  $a4            
$3985: 02           JAM                 
$3986: 04 d4        NOP  $d4            
$3988: 82 39        NOP  #$39           
$398a: dc 16 00     NOP  $0016,x        
$398d: 08           PHP                 
$398e: bf 01 c4     LAX  $c401,y        
$3991: 5f 39 0e     SRE  $0e39,x        
$3994: 00           BRK                 
$3995: f2           JAM                 
$3996: ff 0e 00     ISC  $000e,x        
$3999: 00           BRK                 
$399a: 00           BRK                 
$399b: 05 0a        ORA  $0a            
$399d: 05 00        ORA  z00            
$399f: 14 05        NOP  $05,x          
$39a1: ff 00 00     ISC  z00,x          
$39a4: 04 0a        NOP  $0a            
$39a6: 00           BRK                 
$39a7: 00           BRK                 
$39a8: 00           BRK                 
$39a9: 00           BRK                 
$39aa: 08           PHP                 
$39ab: 49 06        EOR  #$06           
$39ad: 98           TYA                 
$39ae: 05 1e        ORA  $1e            
$39b0: d2           JAM                 
$39b1: 1c 93 39     NOP  $3993,x        
$39b4: 30 03        BMI  l39b9          
$39b6: 30 01        BMI  l39b9          
$39b8: 37 08        RLA  $08,x          
$39ba: 96 0c        STX  $0c,y          
$39bc: 97 0c        SAX  $0c,y          
$39be: 99 0c 37     STA  $370c,y        
$39c1: 10 30        BPL  l39f3          
$39c3: 03 30        SLO  ($30,x)        
$39c5: 01 37        ORA  ($37,x)        
$39c7: 08           PHP                 
$39c8: 39 01 37     AND  $3701,y        
$39cb: 01 36        ORA  ($36,x)        
$39cd: 01 39        ORA  ($39,x)        
$39cf: 01 37        ORA  ($37,x)        
$39d1: 08           PHP                 
$39d2: c0 d2        CPY  #$d2           
$39d4: 1c 93 39     NOP  $3993,x        
$39d7: 2b 03        ANC  #$03           
$39d9: 2b 01        ANC  #$01           
$39db: 34 08        NOP  $08,x          
$39dd: 93 0c        AHX  ($0c),y        
$39df: 94 0c        STY  $0c,x          
$39e1: 95 0c        STA  $0c,x          
$39e3: 34 10        NOP  $10,x          
$39e5: 2b 03        ANC  #$03           
$39e7: 2b 01        ANC  #$01           
$39e9: 34 08        NOP  $08,x          
$39eb: 35 01        AND  $01,x          
$39ed: 34 01        NOP  $01,x          
$39ef: 33 01        RLA  ($01),y        
$39f1: 35 01        AND  $01,x          
l39f3:
$39f3: 34 08        NOP  $08,x          
$39f5: c0 4d        CPY  #$4d           
$39f7: 01 d3        ORA  ($d3,x)        
$39f9: ff 14 00     ISC  $0014,x        
$39fc: ec ff 03     CPX  $03ff          
$39ff: 14 32        NOP  $32,x          
$3a01: 32           JAM                 
$3a02: 00           BRK                 
$3a03: 04 01        NOP  $01            
$3a05: 00           BRK                 
$3a06: 0f 00 f1     SLO  $f100          
$3a09: ff 0f 00     ISC  $000f,x        
l3a0c:
$3a0c: 00           BRK                 
$3a0d: 00           BRK                 
$3a0e: 04 08        NOP  $08            
$3a10: 04 00        NOP  z00            
l3a12:
$3a12: 0e 05 19     ASL  $1905          
$3a15: 00           BRK                 
$3a16: 00           BRK                 
$3a17: 04 0a        NOP  $0a            
$3a19: 00           BRK                 
$3a1a: 00           BRK                 
$3a1b: 00           BRK                 
$3a1c: 00           BRK                 
$3a1d: 08           PHP                 
$3a1e: 49 06        EOR  #$06           
$3a20: 98           TYA                 
$3a21: 05 1e        ORA  $1e            
$3a23: d2           JAM                 
$3a24: 1c 06 3a     NOP  $3a06,x        
$3a27: e0 e2        CPX  #$e2           
$3a29: f6 39        INC  $39,x          
$3a2b: cc 03 24     CPY  $2403          
$3a2e: 04 1f        NOP  $1f            
$3a30: 04 ce        NOP  $ce            
$3a32: 24 02        BIT  $02            
$3a34: 1f 02 21     SLO  $2102,x        
$3a37: 02           JAM                 
$3a38: 23 02        RLA  ($02,x)        
$3a3a: cc 02 24     CPY  $2402          
$3a3d: 04 1f        NOP  $1f            
$3a3f: 04 ce        NOP  $ce            
$3a41: 24 10        BIT  $10            
$3a43: 5f 08 c0     SRE  $c008,x        
$3a46: d2           JAM                 
$3a47: 1c 06 3a     NOP  $3a06,x        
$3a4a: e0 e2        CPX  #$e2           
$3a4c: f6 39        INC  $39,x          
$3a4e: 5f 03 1b     SRE  $1b03,x        
$3a51: 01 1b        ORA  ($1b,x)        
$3a53: 01 1b        ORA  ($1b,x)        
$3a55: 01 1b        ORA  ($1b,x)        
$3a57: 03 1d        SLO  ($1d,x)        
$3a59: 03 21        SLO  ($21,x)        
$3a5b: 03 cc        SLO  ($cc,x)        
$3a5d: 02           JAM                 
$3a5e: 84 10        STY  $10            
$3a60: 7f 11 ce     RRA  $ce11,x        
$3a63: 24 06        BIT  $06            
$3a65: c0 bf        CPY  #$bf           
$3a67: 14 d2        NOP  $d2,x          
$3a69: 1c 93 39     NOP  $3993,x        
$3a6c: 37 02        RLA  $02,x          
$3a6e: 37 01        RLA  $01,x          
$3a70: 3a           NOP                 
$3a71: 06 99        ASL  $99            
$3a73: 10 97        BPL  l3a0c          
$3a75: 11 95        ORA  ($95),y        
$3a77: 10 99        BPL  l3a12          
$3a79: 11 37        ORA  ($37),y        
$3a7b: 06 c0        ASL  $c0            
$3a7d: 42           JAM                 
$3a7e: 01 3f        ORA  ($3f,x)        
$3a80: 01 3c        ORA  ($3c,x)        
$3a82: 01 3a        ORA  ($3a,x)        
$3a84: 01 36        ORA  ($36,x)        
$3a86: 01 33        ORA  ($33,x)        
$3a88: 01 30        ORA  ($30,x)        
$3a8a: 01 2e        ORA  ($2e,x)        
$3a8c: 01 2a        ORA  ($2a,x)        
$3a8e: 01 2e        ORA  ($2e,x)        
$3a90: 01 30        ORA  ($30,x)        
$3a92: 01 33        ORA  ($33,x)        
$3a94: 01 36        ORA  ($36,x)        
$3a96: 01 3a        ORA  ($3a,x)        
$3a98: 01 3c        ORA  ($3c,x)        
$3a9a: 01 c0        ORA  ($c0,x)        
$3a9c: d2           JAM                 
$3a9d: 1c 06 3a     NOP  $3a06,x        
$3aa0: 37 02        RLA  $02,x          
$3aa2: 36 02        ROL  $02,x          
$3aa4: 33 02        RLA  ($02),y        
$3aa6: 35 04        AND  $04,x          
$3aa8: 36 02        ROL  $02,x          
$3aaa: 37 04        RLA  $04,x          
$3aac: cc 03 36     CPY  $3603          
$3aaf: 02           JAM                 
$3ab0: 36 04        ROL  $04,x          
$3ab2: ce 5f 01     DEC  $015f          
$3ab5: c2 7d        NOP  #$7d           
$3ab7: 3a           NOP                 
$3ab8: 3f 01 42     RLA  $4201,x        
$3abb: 01 5f        ORA  ($5f,x)        
$3abd: 02           JAM                 
$3abe: 36 02        ROL  $02,x          
$3ac0: c0 d2        CPY  #$d2           
$3ac2: 1c 06 3a     NOP  $3a06,x        
$3ac5: 30 02        BMI  l3ac9          
$3ac7: 30 02        BMI  l3acb          
l3ac9:
$3ac9: cc 05 30     CPY  l3005          
$3acc: 02           JAM                 
$3acd: 30 04        BMI  l3ad3          
$3acf: ce 5f 01     DEC  $015f          
$3ad2: 42           JAM                 
l3ad3:
$3ad3: 01 c2        ORA  ($c2,x)        
$3ad5: 7d 3a 3f     ADC  $3f3a,x        
$3ad8: 01 5f        ORA  ($5f,x)        
$3ada: 02           JAM                 
$3adb: 30 02        BMI  l3adf          
$3add: c0 d2        CPY  #$d2           
l3adf:
$3adf: 1c 06 3a     NOP  $3a06,x        
$3ae2: e0 e2        CPX  #$e2           
$3ae4: f6 39        INC  $39,x          
$3ae6: cc 04 18     CPY  $1804          
$3ae9: 02           JAM                 
$3aea: 24 02        BIT  $02            
$3aec: ce cc 04     DEC  $04cc          
$3aef: 1b 02 27     SLO  $2702,y        
$3af2: 02           JAM                 
$3af3: ce 5f 03     DEC  $035f          
$3af6: 3f 01 42     RLA  $4201,x        
$3af9: 01 c2        ORA  ($c2,x)        
$3afb: 7d 3a 5f     ADC  $5f3a,x        
$3afe: 02           JAM                 
$3aff: 1e 02 c0     ASL  $c002,x        
$3b02: 41 06        EOR  ($06,x)        
$3b04: 59 19 14     EOR  $1419,y        
$3b07: d2           JAM                 
$3b08: 17 06        SLO  $06,x          
$3b0a: 3a           NOP                 
$3b0b: d4 02        NOP  $02,x          
$3b0d: 3b 37 01     RLA  $0137,y        
$3b10: 37 01        RLA  $01,x          
$3b12: 37 04        RLA  $04,x          
$3b14: 3c 04 3b     NOP  $3b04,x        
$3b17: 04 3e        NOP  $3e            
$3b19: 04 3c        NOP  $3c            
$3b1b: 04 37        NOP  $37            
$3b1d: 0a           ASL                 
$3b1e: 37 01        RLA  $01,x          
$3b20: 37 01        RLA  $01,x          
$3b22: 37 04        RLA  $04,x          
$3b24: 3c 04 3b     NOP  $3b04,x        
$3b27: 04 3e        NOP  $3e            
$3b29: 04 a0        NOP  $a0            
$3b2b: 13 9e        SLO  ($9e),y        
$3b2d: 09 40        ORA  #$40           
$3b2f: 01 c0        ORA  ($c0,x)        
$3b31: d2           JAM                 
$3b32: 17 06        SLO  $06,x          
$3b34: 3a           NOP                 
$3b35: d4 02        NOP  $02,x          
$3b37: 3b 43 01     RLA  $0143,y        
$3b3a: 43 01        SRE  ($01,x)        
$3b3c: 43 04        SRE  ($04,x)        
$3b3e: 48           PHA                 
$3b3f: 04 47        NOP  $47            
$3b41: 04 4a        NOP  $4a            
$3b43: 04 48        NOP  $48            
$3b45: 04 40        NOP  $40            
$3b47: 01 40        ORA  ($40,x)        
$3b49: 01 40        ORA  ($40,x)        
$3b4b: 01 50        ORA  ($50,x)        
$3b4d: 01 41        ORA  ($41,x)        
$3b4f: 01 41        ORA  ($41,x)        
$3b51: 01 41        ORA  ($41,x)        
$3b53: 01 50        ORA  ($50,x)        
$3b55: 01 40        ORA  ($40,x)        
$3b57: 01 40        ORA  ($40,x)        
$3b59: 01 40        ORA  ($40,x)        
$3b5b: 01 43        ORA  ($43,x)        
$3b5d: 01 43        ORA  ($43,x)        
$3b5f: 04 48        NOP  $48            
$3b61: 04 47        NOP  $47            
$3b63: 04 4a        NOP  $4a            
$3b65: 04 9c        NOP  $9c            
$3b67: 13 9b        SLO  ($9b),y        
$3b69: 09 3c        ORA  #$3c           
$3b6b: 01 c0        ORA  ($c0,x)        
$3b6d: d2           JAM                 
$3b6e: 1c 06 3a     NOP  $3a06,x        
$3b71: e0 e2        CPX  #$e2           
$3b73: f6 39        INC  $39,x          
$3b75: 5f 02 cc     SRE  $cc02,x        
$3b78: 06 24        ASL  $24            
$3b7a: 04 1f        NOP  $1f            
$3b7c: 04 ce        NOP  $ce            
$3b7e: ca           DEX                 
$3b7f: 18           CLC                 
$3b80: 41 ca        EOR  ($ca,x)        
$3b82: 1b 28 84     SLO  $8428,y        
$3b85: 13 7f        SLO  ($7f),y        
$3b87: 09 24        ORA  #$24           
$3b89: 01 c0        ORA  ($c0,x)        
$3b8b: 4c c7 3b     JMP  $3bc7          
$3b8e: ad d6 34     LDA  $34d6          
$3b91: f0 0f        BEQ  l3ba2          
$3b93: ce d6 34     DEC  $34d6          
$3b96: 8a           TXA                 
$3b97: 6d c5 34     ADC  $34c5          
$3b9a: aa           TAX                 
$3b9b: 98           TYA                 
$3b9c: 6d c6 34     ADC  $34c6          
$3b9f: 4c c7 3b     JMP  l3bc7          
l3ba2:
$3ba2: ad d7 34     LDA  $34d7          
$3ba5: f0 0f        BEQ  l3bb6          
$3ba7: ce d7 34     DEC  $34d7          
$3baa: 8a           TXA                 
$3bab: 6d c7 34     ADC  $34c7          
$3bae: aa           TAX                 
$3baf: 98           TYA                 
$3bb0: 6d c8 34     ADC  $34c8          
$3bb3: 4c c7 3b     JMP  l3bc7          
l3bb6:
$3bb6: ad d8 34     LDA  $34d8          
$3bb9: f0 2e        BEQ  l3be9          
$3bbb: ce d8 34     DEC  $34d8          
$3bbe: 8a           TXA                 
$3bbf: 6d c9 34     ADC  $34c9          
$3bc2: aa           TAX                 
$3bc3: 98           TYA                 
$3bc4: 6d ca 34     ADC  $34ca          
l3bc7:
$3bc7: a8           TAY                 
l3bc8:
$3bc8: 8e d3 34     STX  $34d3          
$3bcb: 8c d4 34     STY  $34d4          
l3bce:
$3bce: 8a           TXA                 
$3bcf: 29 07        AND  #$07           
$3bd1: 8d 15 d4     STA  $d415          
$3bd4: 98           TYA                 
$3bd5: 8e 43 35     STX  $3543          
$3bd8: 4a           LSR                 
$3bd9: 6e 43 35     ROR  $3543          
$3bdc: 4a           LSR                 
$3bdd: 6e 43 35     ROR  $3543          
$3be0: 4a           LSR                 
$3be1: ad 43 35     LDA  $3543          
$3be4: 6a           ROR                 
$3be5: 8d 16 d4     STA  $d416          
$3be8: 60           RTS                 
l3be9:
$3be9: ad d0 34     LDA  $34d0          
$3bec: 29 81        AND  #$81           
$3bee: f0 d8        BEQ  l3bc8          
$3bf0: 10 06        BPL  l3bf8          
$3bf2: 20 0a 37     JSR  $370a          
$3bf5: 4c 79 3b     JMP  $3b79          
l3bf8:
$3bf8: 20 16 37     JSR  $3716          
$3bfb: 4c 79 3b     JMP  l3b79          
l3bfe:
$3bfe: a2 07        LDX  #$07           
l3c00:
$3c00: bd b3 34     LDA  $34b3,x        
$3c03: 9d c3 34     STA  $34c3,x        
$3c06: bd bb 34     LDA  $34bb,x        
$3c09: 9d cb 34     STA  $34cb,x        
$3c0c: ca           DEX                 
$3c0d: 10 f1        BPL  l3c00          
$3c0f: 20 0a 37     JSR  l370a          
$3c12: 4c ce 3b     JMP  $3bce          
$3c15: ad 45 35     LDA  $3545          
$3c18: f0 04        BEQ  l3c1e          
$3c1a: c6 e6        DEC  $e6            
$3c1c: f0 0e        BEQ  l3c2c          
l3c1e:
$3c1e: 60           RTS                 
l3c1f:
$3c1f: e6 e1        INC  $e1            
$3c21: d0 09        BNE  l3c2c          
$3c23: a9 03        LDA  #$03           
$3c25: 18           CLC                 
$3c26: 65 e0        ADC  $e0            
$3c28: 85 e0        STA  $e0            
$3c2a: b0 f3        BCS  l3c1f          
l3c2c:
$3c2c: a0 00        LDY  #$00           
$3c2e: b1 e0        LDA  ($e0),y        
$3c30: c9 c0        CMP  #$c0           
$3c32: 90 0c        BCC  l3c40          
$3c34: c8           INY                 
$3c35: 69 6c        ADC  #$6c           
$3c37: 8d 3b 3c     STA  $3c3b          
$3c3a: 6c 2d 3f     JMP  ($3f2d)        
l3c3d:
$3c3d: 4c 4f 3d     JMP  $3d4f          
l3c40:
$3c40: 85 ff        STA  $ff            
$3c42: c9 60        CMP  #$60           
$3c44: 90 02        BCC  l3c48          
$3c46: e9 60        SBC  #$60           
l3c48:
$3c48: c9 5f        CMP  #$5f           
$3c4a: f0 f1        BEQ  l3c3d          
$3c4c: 65 ec        ADC  $ec            
$3c4e: aa           TAX                 
$3c4f: a9 08        LDA  #$08           
$3c51: 8d 04 d4     STA  $d404          
$3c54: ad 42 35     LDA  $3542          
$3c57: d0 07        BNE  l3c60          
$3c59: 86 ef        STX  $ef            
$3c5b: 20 fe 3b     JSR  $3bfe          
$3c5e: a6 ef        LDX  $ef            
l3c60:
$3c60: bc c4 35     LDY  $35c4,x        
$3c63: bd 73 35     LDA  $3573,x        
$3c66: 8d f1 34     STA  $34f1          
$3c69: 8c f2 34     STY  $34f2          
$3c6c: 8d 00 d4     STA  $d400          
$3c6f: 8c 01 d4     STY  $d401          
$3c72: ae 72 34     LDX  $3472          
$3c75: ac 73 34     LDY  $3473          
$3c78: 8e 02 d4     STX  $d402          
$3c7b: 8c 03 d4     STY  $d403          
$3c7e: ad 75 34     LDA  $3475          
$3c81: 8d 05 d4     STA  $d405          
$3c84: ad 76 34     LDA  $3476          
$3c87: 8d 06 d4     STA  $d406          
$3c8a: ad 74 34     LDA  $3474          
$3c8d: 8d f3 34     STA  $34f3          
$3c90: 29 f7        AND  #$f7           
$3c92: 8d 04 d4     STA  $d404          
$3c95: ad 6d 34     LDA  $346d          
$3c98: 8d ea 34     STA  $34ea          
$3c9b: f0 3a        BEQ  l3cd7          
$3c9d: 8e ef 34     STX  $34ef          
$3ca0: 8c f0 34     STY  $34f0          
$3ca3: 86 f1        STX  $f1            
$3ca5: 84 f2        STY  $f2            
$3ca7: ad 71 34     LDA  $3471          
$3caa: 8d ee 34     STA  $34ee          
$3cad: ad 70 34     LDA  $3470          
$3cb0: 8d ed 34     STA  $34ed          
$3cb3: ad 6f 34     LDA  $346f          
$3cb6: 8d ec 34     STA  $34ec          
$3cb9: ad 6e 34     LDA  $346e          
$3cbc: 8d eb 34     STA  $34eb          
$3cbf: ad 6c 34     LDA  $346c          
$3cc2: 8d e9 34     STA  $34e9          
$3cc5: ae 6a 34     LDX  $346a          
$3cc8: ac 6b 34     LDY  $346b          
$3ccb: 8e e7 34     STX  $34e7          
$3cce: 8e fa 34     STX  $34fa          
$3cd1: 8c e8 34     STY  $34e8          
$3cd4: 8c fb 34     STY  $34fb          
l3cd7:
$3cd7: ad 69 34     LDA  $3469          
$3cda: 8d e6 34     STA  $34e6          
$3cdd: f0 64        BEQ  l3d43          
$3cdf: ae 68 34     LDX  $3468          
$3ce2: 8e e5 34     STX  $34e5          
$3ce5: ae 67 34     LDX  $3467          
$3ce8: 8e e4 34     STX  $34e4          
$3ceb: ae 66 34     LDX  $3466          
$3cee: 8e e3 34     STX  $34e3          
$3cf1: ae 65 34     LDX  l3465          
$3cf4: 8e e2 34     STX  $34e2          
$3cf7: ae 64 34     LDX  $3464          
$3cfa: 8e e1 34     STX  $34e1          
$3cfd: ae 63 34     LDX  $3463          
$3d00: 8e e0 34     STX  $34e0          
$3d03: ae 62 34     LDX  $3462          
$3d06: 8e df 34     STX  $34df          
$3d09: ae 61 34     LDX  $3461          
$3d0c: 8e de 34     STX  $34de          
$3d0f: ae 60 34     LDX  $3460          
$3d12: 8e dd 34     STX  $34dd          
$3d15: ae 5f 34     LDX  $345f          
$3d18: 8e dc 34     STX  $34dc          
$3d1b: ae 5e 34     LDX  $345e          
$3d1e: 8e db 34     STX  $34db          
$3d21: ae 5d 34     LDX  $345d          
$3d24: 8e da 34     STX  $34da          
$3d27: ae 5c 34     LDX  $345c          
$3d2a: 8e d9 34     STX  $34d9          
$3d2d: 29 08        AND  #$08           
$3d2f: f0 0f        BEQ  l3d40          
$3d31: a5 ff        LDA  $ff            
$3d33: c9 60        CMP  #$60           
$3d35: 90 02        BCC  l3d39          
$3d37: e9 5f        SBC  #$5f           
l3d39:
$3d39: 65 ec        ADC  $ec            
$3d3b: 8d e3 34     STA  $34e3          
$3d3e: d0 03        BNE  l3d43          
l3d40:
$3d40: 20 a5 37     JSR  $37a5          
l3d43:
$3d43: ae 77 34     LDX  $3477          
$3d46: ac 78 34     LDY  $3478          
$3d49: 8e f4 34     STX  $34f4          
$3d4c: 8c f5 34     STY  $34f5          
l3d4f:
$3d4f: a0 01        LDY  #$01           
$3d51: b1 e0        LDA  ($e0),y        
$3d53: a6 ff        LDX  $ff            
$3d55: e0 60        CPX  #$60           
$3d57: b0 04        BCS  l3d5d          
$3d59: aa           TAX                 
$3d5a: bd 49 35     LDA  $3549,x        
l3d5d:
$3d5d: 85 e6        STA  $e6            
$3d5f: a9 02        LDA  #$02           
$3d61: 18           CLC                 
$3d62: 65 e0        ADC  $e0            
$3d64: 85 e0        STA  $e0            
$3d66: b0 01        BCS  l3d69          
$3d68: 60           RTS                 
l3d69:
$3d69: e6 e1        INC  $e1            
$3d6b: 60           RTS                 
$3d6c: ad 46 35     LDA  $3546          
$3d6f: f0 04        BEQ  l3d75          
$3d71: c6 e7        DEC  $e7            
$3d73: f0 0e        BEQ  l3d83          
l3d75:
$3d75: 60           RTS                 
l3d76:
$3d76: e6 e3        INC  $e3            
$3d78: d0 09        BNE  l3d83          
$3d7a: a9 03        LDA  #$03           
$3d7c: 18           CLC                 
$3d7d: 65 e2        ADC  $e2            
$3d7f: 85 e2        STA  $e2            
$3d81: b0 f3        BCS  l3d76          
l3d83:
$3d83: a0 00        LDY  #$00           
$3d85: b1 e2        LDA  ($e2),y        
$3d87: c9 c0        CMP  #$c0           
$3d89: 90 0c        BCC  l3d97          
$3d8b: c8           INY                 
$3d8c: 69 9e        ADC  #$9e           
$3d8e: 8d 92 3d     STA  $3d92          
$3d91: 6c 5f 3f     JMP  ($3f5f)        
l3d94:
$3d94: 4c a8 3e     JMP  $3ea8          
l3d97:
$3d97: 85 ff        STA  $ff            
$3d99: c9 60        CMP  #$60           
$3d9b: 90 02        BCC  l3d9f          
$3d9d: e9 60        SBC  #$60           
l3d9f:
$3d9f: c9 5f        CMP  #$5f           
$3da1: f0 f1        BEQ  l3d94          
$3da3: 65 ed        ADC  $ed            
$3da5: aa           TAX                 
$3da6: a9 08        LDA  #$08           
$3da8: 8d 0b d4     STA  $d40b          
$3dab: ad 42 35     LDA  $3542          
$3dae: c9 01        CMP  #$01           
$3db0: d0 07        BNE  l3db9          
$3db2: 86 ef        STX  $ef            
$3db4: 20 fe 3b     JSR  l3bfe          
$3db7: a6 ef        LDX  $ef            
l3db9:
$3db9: bc c4 35     LDY  $35c4,x        
$3dbc: bd 73 35     LDA  $3573,x        
$3dbf: 8d 14 35     STA  $3514          
$3dc2: 8c 15 35     STY  $3515          
$3dc5: 8d 07 d4     STA  $d407          
$3dc8: 8c 08 d4     STY  $d408          
$3dcb: ae 8f 34     LDX  $348f          
$3dce: ac 90 34     LDY  $3490          
$3dd1: 8e 09 d4     STX  $d409          
$3dd4: 8c 0a d4     STY  $d40a          
$3dd7: ad 92 34     LDA  $3492          
$3dda: 8d 0c d4     STA  $d40c          
$3ddd: ad 93 34     LDA  $3493          
$3de0: 8d 0d d4     STA  $d40d          
$3de3: ad 91 34     LDA  $3491          
$3de6: 8d 16 35     STA  $3516          
$3de9: 29 f7        AND  #$f7           
$3deb: 8d 0b d4     STA  $d40b          
$3dee: ad 8a 34     LDA  $348a          
$3df1: 8d 0d 35     STA  $350d          
$3df4: f0 3a        BEQ  l3e30          
$3df6: 8e 12 35     STX  $3512          
$3df9: 8c 13 35     STY  $3513          
$3dfc: 86 f3        STX  $f3            
$3dfe: 84 f4        STY  $f4            
$3e00: ad 8e 34     LDA  $348e          
$3e03: 8d 11 35     STA  $3511          
$3e06: ae 8d 34     LDX  $348d          
$3e09: 8e 10 35     STX  $3510          
$3e0c: ad 8c 34     LDA  $348c          
$3e0f: 8d 0f 35     STA  $350f          
$3e12: ad 8b 34     LDA  $348b          
$3e15: 8d 0e 35     STA  $350e          
$3e18: ad 89 34     LDA  $3489          
$3e1b: 8d 0c 35     STA  $350c          
$3e1e: ae 87 34     LDX  $3487          
$3e21: ac 88 34     LDY  $3488          
$3e24: 8e 0a 35     STX  $350a          
$3e27: 8e 1d 35     STX  l351d          
$3e2a: 8c 0b 35     STY  $350b          
$3e2d: 8c 1e 35     STY  l351e          
l3e30:
$3e30: ad 86 34     LDA  $3486          
$3e33: 8d 09 35     STA  $3509          
$3e36: f0 64        BEQ  l3e9c          
$3e38: ae 85 34     LDX  $3485          
$3e3b: 8e 08 35     STX  $3508          
$3e3e: ae 84 34     LDX  $3484          
$3e41: 8e 07 35     STX  $3507          
$3e44: ae 83 34     LDX  $3483          
$3e47: 8e 06 35     STX  $3506          
$3e4a: ae 82 34     LDX  $3482          
$3e4d: 8e 05 35     STX  $3505          
$3e50: ae 81 34     LDX  $3481          
$3e53: 8e 04 35     STX  $3504          
$3e56: ae 80 34     LDX  $3480          
$3e59: 8e 03 35     STX  $3503          
$3e5c: ae 7f 34     LDX  $347f          
$3e5f: 8e 02 35     STX  $3502          
$3e62: ae 7e 34     LDX  $347e          
$3e65: 8e 01 35     STX  $3501          
$3e68: ae 7d 34     LDX  $347d          
$3e6b: 8e 00 35     STX  $3500          
$3e6e: ae 7c 34     LDX  $347c          
$3e71: 8e ff 34     STX  $34ff          
$3e74: ae 7b 34     LDX  $347b          
$3e77: 8e fe 34     STX  $34fe          
$3e7a: ae 7a 34     LDX  $347a          
$3e7d: 8e fd 34     STX  $34fd          
$3e80: ae 79 34     LDX  $3479          
$3e83: 8e fc 34     STX  $34fc          
$3e86: 29 08        AND  #$08           
$3e88: f0 0f        BEQ  l3e99          
$3e8a: a5 ff        LDA  $ff            
$3e8c: c9 60        CMP  #$60           
$3e8e: 90 02        BCC  l3e92          
$3e90: e9 5f        SBC  #$5f           
l3e92:
$3e92: 65 ed        ADC  $ed            
$3e94: 8d 06 35     STA  $3506          
$3e97: d0 03        BNE  l3e9c          
l3e99:
$3e99: 20 d9 37     JSR  $37d9          
l3e9c:
$3e9c: ae 94 34     LDX  $3494          
$3e9f: ac 95 34     LDY  $3495          
$3ea2: 8e 17 35     STX  $3517          
$3ea5: 8c 18 35     STY  $3518          
l3ea8:
$3ea8: a0 01        LDY  #$01           
$3eaa: b1 e2        LDA  ($e2),y        
$3eac: a6 ff        LDX  $ff            
$3eae: e0 60        CPX  #$60           
$3eb0: b0 04        BCS  l3eb6          
$3eb2: aa           TAX                 
$3eb3: bd 49 35     LDA  $3549,x        
l3eb6:
$3eb6: 85 e7        STA  $e7            
$3eb8: a9 02        LDA  #$02           
$3eba: 18           CLC                 
$3ebb: 65 e2        ADC  $e2            
$3ebd: 85 e2        STA  $e2            
$3ebf: b0 01        BCS  l3ec2          
$3ec1: 60           RTS                 
l3ec2:
$3ec2: e6 e3        INC  $e3            
$3ec4: 60           RTS                 
$3ec5: ad 47 35     LDA  $3547          
$3ec8: f0 04        BEQ  l3ece          
$3eca: c6 e8        DEC  $e8            
$3ecc: f0 0e        BEQ  l3edc          
l3ece:
$3ece: 60           RTS                 
l3ecf:
$3ecf: e6 e5        INC  $e5            
$3ed1: d0 09        BNE  l3edc          
$3ed3: a9 03        LDA  #$03           
$3ed5: 18           CLC                 
$3ed6: 65 e4        ADC  $e4            
$3ed8: 85 e4        STA  $e4            
$3eda: b0 f3        BCS  l3ecf          
l3edc:
$3edc: a0 00        LDY  #$00           
$3ede: b1 e4        LDA  ($e4),y        
$3ee0: c9 c0        CMP  #$c0           
$3ee2: 90 0c        BCC  l3ef0          
$3ee4: c8           INY                 
$3ee5: 69 d0        ADC  #$d0           
$3ee7: 8d eb 3e     STA  $3eeb          
$3eea: 6c 91 3f     JMP  ($3f91)        
l3eed:
$3eed: 4c 05 40     JMP  $4005          
l3ef0:
$3ef0: 85 ff        STA  $ff            
$3ef2: c9 60        CMP  #$60           
$3ef4: 90 02        BCC  l3ef8          
$3ef6: e9 60        SBC  #$60           
l3ef8:
$3ef8: c9 5f        CMP  #$5f           
$3efa: f0 f1        BEQ  l3eed          
$3efc: c9 50        CMP  #$50           
$3efe: f0 02        BEQ  l3f02          
$3f00: e6 28        INC  $28            
l3f02:
$3f02: 34 28        NOP  $28,x          
$3f04: b6 28        LDX  $28,y          
$3f06: 2c 28 5a     BIT  $5a28          
$3f09: 0a           ASL                 
$3f0a: c3 28        DCP  ($28,x)        
$3f0c: 83 28        SAX  ($28,x)        
$3f0e: cf 28 5a     DCP  $5a28          
$3f11: 0a           ASL                 
$3f12: 66 28        ROR  $28            
$3f14: 0a           ASL                 
$3f15: 29 fe        AND  #$fe           
$3f17: 28           PLP                 
$3f18: 5a           NOP                 
$3f19: 0a           ASL                 
$3f1a: 5a           NOP                 
$3f1b: 0a           ASL                 
$3f1c: 5a           NOP                 
$3f1d: 0a           ASL                 
$3f1e: 52           JAM                 
$3f1f: 28           PLP                 
$3f20: 5a           NOP                 
$3f21: 0a           ASL                 
$3f22: 5a           NOP                 
$3f23: 0a           ASL                 
$3f24: 5a           NOP                 
$3f25: 0a           ASL                 
$3f26: 5a           NOP                 
$3f27: 0a           ASL                 
$3f28: 5a           NOP                 
$3f29: 0a           ASL                 
$3f2a: 5a           NOP                 
$3f2b: 0a           ASL                 
$3f2c: 5a           NOP                 
$3f2d: 0a           ASL                 
$3f2e: 5a           NOP                 
$3f2f: 0a           ASL                 
$3f30: 9d 28 e6     STA  $e628,x        
$3f33: 29 20        AND  #$20           
$3f35: 29 b6        AND  #$b6           
$3f37: 29 5d        AND  #$5d           
$3f39: 0a           ASL                 
$3f3a: 5d 0a c3     EOR  $c30a,x        
$3f3d: 29 83        AND  #$83           
$3f3f: 29 cf        AND  #$cf           
$3f41: 29 5d        AND  #$5d           
$3f43: 0a           ASL                 
$3f44: 66 29        ROR  $29            
$3f46: 0a           ASL                 
$3f47: 2a           ROL                 
$3f48: fe 29 5d     INC  $5d29,x        
$3f4b: 0a           ASL                 
$3f4c: 5d 0a 3e     EOR  $3e0a,x        
$3f4f: 29 52        AND  #$52           
$3f51: 29 5d        AND  #$5d           
$3f53: 0a           ASL                 
$3f54: 5d 0a 5d     EOR  $5d0a,x        
$3f57: 0a           ASL                 
$3f58: 5d 0a 5d     EOR  $5d0a,x        
$3f5b: 0a           ASL                 
$3f5c: 5d 0a 5d     EOR  $5d0a,x        
$3f5f: 0a           ASL                 
$3f60: 5d 0a 9d     EOR  $9d0a,x        
$3f63: 29 2f        AND  #$2f           
$3f65: 2b 28        ANC  #$28           
$3f67: 2a           ROL                 
$3f68: e9 2a        SBC  #$2a           
$3f6a: 20 2a 60     JSR  $602a          
$3f6d: 0a           ASL                 
$3f6e: 0c 2b b6     NOP  $b62b          
$3f71: 2a           ROL                 
$3f72: 18           CLC                 
$3f73: 2b 60        ANC  #$60           
$3f75: 0a           ASL                 
$3f76: 99 2a 47     STA  $472a,y        
$3f79: 2b 60        ANC  #$60           
$3f7b: 0a           ASL                 
$3f7c: 46 2a        LSR  $2a            
$3f7e: 60           RTS                 
$3f7f: 0a           ASL                 
$3f80: 58           CLI                 
$3f81: 2a           ROL                 
$3f82: 6c 2a 08     JMP  ($082a)        
$3f85: 2b 80        ANC  #$80           
$3f87: 2a           ROL                 
$3f88: 60           RTS                 
$3f89: 0a           ASL                 
$3f8a: 60           RTS                 
$3f8b: 0a           ASL                 
$3f8c: 60           RTS                 
$3f8d: 0a           ASL                 
$3f8e: 60           RTS                 
$3f8f: 0a           ASL                 
$3f90: 60           RTS                 
$3f91: 0a           ASL                 
$3f92: 60           RTS                 
$3f93: 0a           ASL                 
$3f94: d0 2a        BNE  l3fc0          
$3f96: a2 34        LDX  #$34           
$3f98: 8e 2b 35     STX  $352b          
$3f9b: ae a1 34     LDX  $34a1          
$3f9e: 8e 2a 9d     STX  $9d2a          
$3fa1: 36 09        ROL  $09,x          
$3fa3: 20 75 fa     JSR  $fa75          
$3fa6: d8           CLD                 
$3fa7: a9 28        LDA  #$28           
$3fa9: 60           RTS                 
$3faa: 8e 28 35     STX  $3528          
$3fad: ae 9e 34     LDX  $349e          
$3fb0: 8e 27 35     STX  $3527          
$3fb3: ae 9d 34     LDX  $349d          
$3fb6: 8e 26 35     STX  $3526          
$3fb9: ae 9c 34     LDX  $349c          
$3fbc: 8e 25 35     STX  $3525          
$3fbf: ae 9b 34     LDX  $349b          
$3fc2: 8e 24 35     STX  $3524          
$3fc5: ae 9a 34     LDX  $349a          
$3fc8: 8e 23 35     STX  $3523          
$3fcb: ae 99 34     LDX  $3499          
$3fce: 8e 22 35     STX  $3522          
$3fd1: ae 98 34     LDX  $3498          
$3fd4: 8e 21 35     STX  $3521          
$3fd7: ae 97 34     LDX  $3497          
$3fda: 8e 20 35     STX  $3520          
$3fdd: ae 96 34     LDX  $3496          
$3fe0: 8e 1f 35     STX  $351f          
$3fe3: 29 08        AND  #$08           
$3fe5: f0 0f        BEQ  l3ff6          
$3fe7: a5 ff        LDA  $ff            
$3fe9: c9 60        CMP  #$60           
$3feb: 90 02        BCC  l3fef          
$3fed: e9 5f        SBC  #$5f           
l3fef:
$3fef: 65 ee        ADC  $ee            
$3ff1: 8d 29 35     STA  $3529          
$3ff4: d0 03        BNE  l3ff9          
l3ff6:
$3ff6: 20 09 38     JSR  $3809          
l3ff9:
$3ff9: ae b1 34     LDX  $34b1          
$3ffc: ac b2 34     LDY  $34b2          
$3fff: 0f 8d e8     SLO  $e88d          