; Disassembly of Stinsens_Last_Night_of_89.sid
; Generated by SIDM2 for ASM annotation
; Title: Stinsen's Last Night of '89
; Author: Thomas E. Petersen (Laxity)
; Load: $1000
; Init: $1000
; Play: $1006

$1000: 4c 92 16     JMP  $1692          
$1003: 4c 9b 16     JMP  $169b          
$1006: a9 00        LDA  #$00           
$1008: 2c 81 17     BIT  $1781          
$100b: 30 44        BMI  l1051          
$100d: 70 38        BVS  l1047          
$100f: a2 75        LDX  #$75           
l1011:
$1011: 9d 82 17     STA  $1782,x        
$1014: ca           DEX                 
$1015: d0 fa        BNE  l1011          
$1017: ae 82 17     LDX  $1782          
$101a: bd fb 17     LDA  $17fb,x        
$101d: 8d 80 17     STA  $1780          
$1020: 8d 84 17     STA  $1784          
$1023: bd fc 17     LDA  $17fc,x        
$1026: 29 0f        AND  #$0f           
$1028: 8d 85 17     STA  $1785          
$102b: bd fc 17     LDA  $17fc,x        
$102e: 29 70        AND  #$70           
$1030: 8d 86 17     STA  $1786          
$1033: a9 02        LDA  #$02           
$1035: 8d 83 17     STA  $1783          
$1038: 8d f8 17     STA  $17f8          
$103b: 8d f9 17     STA  $17f9          
$103e: 8d fa 17     STA  $17fa          
$1041: a9 80        LDA  #$80           
$1043: 8d 81 17     STA  $1781          
$1046: 60           RTS                 
l1047:
$1047: 8d 04 d4     STA  $d404          
$104a: 8d 0b d4     STA  $d40b          
$104d: 8d 12 d4     STA  $d412          
$1050: 60           RTS                 
l1051:
$1051: ce 83 17     DEC  $1783          
$1054: 10 17        BPL  l106d          
$1056: ae 84 17     LDX  $1784          
$1059: bd 19 1a     LDA  $1a19,x        
$105c: 8d 83 17     STA  $1783          
$105f: e8           INX                 
$1060: bd 19 1a     LDA  $1a19,x        
$1063: c9 7f        CMP  #$7f           
$1065: d0 03        BNE  l106a          
$1067: ae 80 17     LDX  $1780          
l106a:
$106a: 8e 84 17     STX  $1784          
l106d:
$106d: a2 02        LDX  #$02           
l106f:
$106f: bd f8 17     LDA  $17f8,x        
$1072: c9 01        CMP  #$01           
$1074: d0 39        BNE  l10af          
$1076: bd 95 17     LDA  $1795,x        
$1079: d0 34        BNE  l10af          
$107b: fe 95 17     INC  $1795,x        
$107e: bd 1c 1a     LDA  $1a1c,x        
$1081: 85 fc        STA  $fc            
$1083: bd 1f 1a     LDA  $1a1f,x        
$1086: 85 fd        STA  $fd            
$1088: bc 92 17     LDY  $1792,x        
$108b: b1 fc        LDA  ($fc),y        
$108d: 10 09        BPL  l1098          
$108f: 38           SEC                 
$1090: e9 a0        SBC  #$a0           
$1092: 9d b0 17     STA  $17b0,x        
$1095: c8           INY                 
$1096: b1 fc        LDA  ($fc),y        
l1098:
$1098: 9d 9b 17     STA  $179b,x        
$109b: c8           INY                 
$109c: b1 fc        LDA  ($fc),y        
$109e: c9 ff        CMP  #$ff           
$10a0: d0 04        BNE  l10a6          
$10a2: c8           INY                 
$10a3: b1 fc        LDA  ($fc),y        
$10a5: a8           TAY                 
l10a6:
$10a6: 98           TYA                 
$10a7: 9d 92 17     STA  $1792,x        
$10aa: a9 00        LDA  #$00           
$10ac: 9d 98 17     STA  $1798,x        
l10af:
$10af: ad 83 17     LDA  $1783          
$10b2: d0 6d        BNE  l1121          
$10b4: de 8f 17     DEC  $178f,x        
$10b7: 10 68        BPL  l1121          
$10b9: bc 9b 17     LDY  $179b,x        
$10bc: b9 22 1a     LDA  $1a22,y        
$10bf: 85 fc        STA  $fc            
$10c1: b9 49 1a     LDA  $1a49,y        
$10c4: 85 fd        STA  $fd            
$10c6: bc 98 17     LDY  $1798,x        
$10c9: b1 fc        LDA  ($fc),y        
$10cb: 10 27        BPL  l10f4          
$10cd: c9 c0        CMP  #$c0           
$10cf: 90 08        BCC  l10d9          
$10d1: 9d aa 17     STA  $17aa,x        
$10d4: c8           INY                 
$10d5: b1 fc        LDA  ($fc),y        
$10d7: 10 1b        BPL  l10f4          
l10d9:
$10d9: c9 a0        CMP  #$a0           
$10db: 90 08        BCC  l10e5          
$10dd: 9d a7 17     STA  $17a7,x        
$10e0: c8           INY                 
$10e1: b1 fc        LDA  ($fc),y        
$10e3: 10 0f        BPL  l10f4          
l10e5:
$10e5: c9 90        CMP  #$90           
$10e7: 90 03        BCC  l10ec          
$10e9: fe a1 17     INC  $17a1,x        
l10ec:
$10ec: 29 0f        AND  #$0f           
$10ee: 9d 9e 17     STA  $179e,x        
$10f1: c8           INY                 
$10f2: b1 fc        LDA  ($fc),y        
l10f4:
$10f4: 9d a4 17     STA  $17a4,x        
$10f7: f0 04        BEQ  l10fd          
$10f9: c9 7e        CMP  #$7e           
$10fb: d0 05        BNE  l1102          
l10fd:
$10fd: fe a1 17     INC  $17a1,x        
$1100: d0 06        BNE  l1108          
l1102:
$1102: bd b0 17     LDA  $17b0,x        
$1105: 9d b3 17     STA  $17b3,x        
l1108:
$1108: c8           INY                 
$1109: 98           TYA                 
$110a: 9d 98 17     STA  $1798,x        
$110d: bd 9e 17     LDA  $179e,x        
$1110: 9d 8f 17     STA  $178f,x        
$1113: a9 02        LDA  #$02           
$1115: 9d f8 17     STA  $17f8,x        
$1118: b1 fc        LDA  ($fc),y        
$111a: c9 7f        CMP  #$7f           
$111c: d0 03        BNE  l1121          
$111e: de 95 17     DEC  $1795,x        
l1121:
$1121: bc f8 17     LDY  $17f8,x        
$1124: 30 36        BMI  l115c          
$1126: bd a1 17     LDA  $17a1,x        
$1129: d0 31        BNE  l115c          
$112b: c0 01        CPY  #$01           
$112d: f0 23        BEQ  l1152          
$112f: c0 00        CPY  #$00           
$1131: f0 2c        BEQ  l115f          
$1133: bd a7 17     LDA  $17a7,x        
$1136: 29 1f        AND  #$1f           
$1138: a8           TAY                 
$1139: b9 25 18     LDA  $1825,y        
$113c: 10 0f        BPL  l114d          
$113e: 29 0f        AND  #$0f           
$1140: a8           TAY                 
$1141: b9 d8 18     LDA  $18d8,y        
$1144: 9d ef 17     STA  $17ef,x        
$1147: b9 d9 18     LDA  $18d9,y        
$114a: 9d f2 17     STA  $17f2,x        
l114d:
$114d: a9 fe        LDA  #$fe           
$114f: 9d f5 17     STA  $17f5,x        
l1152:
$1152: bd bc 17     LDA  $17bc,x        
$1155: c9 04        CMP  #$04           
$1157: b0 03        BCS  l115c          
$1159: 4c 40 15     JMP  $1540          
l115c:
$115c: 4c 79 13     JMP  $1379          
l115f:
$115f: a9 ff        LDA  #$ff           
$1161: 9d f5 17     STA  $17f5,x        
$1164: bd a7 17     LDA  $17a7,x        
$1167: 10 36        BPL  l119f          
$1169: 29 1f        AND  #$1f           
$116b: 9d ad 17     STA  $17ad,x        
$116e: 9d a7 17     STA  $17a7,x        
$1171: a8           TAY                 
$1172: b9 fd 17     LDA  $17fd,y        
$1175: 9d d4 17     STA  $17d4,x        
$1178: 9d ef 17     STA  $17ef,x        
$117b: b9 11 18     LDA  $1811,y        
$117e: 9d d7 17     STA  $17d7,x        
$1181: 9d f2 17     STA  $17f2,x        
$1184: b9 25 18     LDA  $1825,y        
$1187: 29 20        AND  #$20           
$1189: f0 08        BEQ  l1193          
$118b: ad 8b 17     LDA  $178b          
$118e: 1d 7a 17     ORA  $177a,x        
$1191: d0 06        BNE  l1199          
l1193:
$1193: ad 8b 17     LDA  $178b          
$1196: 3d 7d 17     AND  $177d,x        
l1199:
$1199: 8d 8b 17     STA  $178b          
$119c: 4c c8 11     JMP  $11c8          
l119f:
$119f: bc ad 17     LDY  $17ad,x        
$11a2: bd d4 17     LDA  $17d4,x        
$11a5: 9d ef 17     STA  $17ef,x        
$11a8: bd d7 17     LDA  $17d7,x        
$11ab: 9d f2 17     STA  $17f2,x        
$11ae: bd bc 17     LDA  $17bc,x        
$11b1: c9 03        CMP  #$03           
$11b3: f0 18        BEQ  l11cd          
$11b5: c9 04        CMP  #$04           
$11b7: d0 0f        BNE  l11c8          
$11b9: bd ce 17     LDA  $17ce,x        
$11bc: 9d d1 17     STA  $17d1,x        
$11bf: bd cb 17     LDA  $17cb,x        
$11c2: 9d c8 17     STA  $17c8,x        
$11c5: 4c cd 11     JMP  l11cd          
l11c8:
$11c8: a9 00        LDA  #$00           
$11ca: 9d bc 17     STA  $17bc,x        
l11cd:
$11cd: b9 25 18     LDA  $1825,y        
$11d0: 29 10        AND  #$10           
$11d2: 4a           LSR                 
$11d3: 09 01        ORA  #$01           
$11d5: 9d ec 17     STA  $17ec,x        
$11d8: b9 25 18     LDA  $1825,y        
$11db: 29 40        AND  #$40           
$11dd: f0 12        BEQ  l11f1          
$11df: 0a           ASL                 
$11e0: 8d 8c 17     STA  $178c          
$11e3: b9 39 18     LDA  $1839,y        
$11e6: 8d 8e 17     STA  $178e          
$11e9: ce 8e 17     DEC  $178e          
$11ec: a9 00        LDA  #$00           
$11ee: 8d 8d 17     STA  $178d          
l11f1:
$11f1: b9 61 18     LDA  $1861,y        
$11f4: 9d bf 17     STA  $17bf,x        
$11f7: b9 4d 18     LDA  $184d,y        
$11fa: 9d c2 17     STA  $17c2,x        
$11fd: a9 00        LDA  #$00           
$11ff: 9d c5 17     STA  $17c5,x        
l1202:
$1202: bd aa 17     LDA  $17aa,x        
$1205: 30 03        BMI  l120a          
$1207: 4c 1f 13     JMP  $131f          
l120a:
$120a: 29 3f        AND  #$3f           
$120c: 9d aa 17     STA  $17aa,x        
$120f: a8           TAY                 
$1210: b9 75 18     LDA  $1875,y        
$1213: 29 0f        AND  #$0f           
$1215: a8           TAY                 
$1216: b9 61 17     LDA  $1761,y        
$1219: 8d 88 12     STA  $1288          
$121c: bc aa 17     LDY  $17aa,x        
$121f: 4c 86 12     JMP  $1286          
$1222: b9 96 18     LDA  $1896,y        
$1225: 9d cb 17     STA  $17cb,x        
$1228: b9 b7 18     LDA  $18b7,y        
$122b: 9d c8 17     STA  $17c8,x        
$122e: a9 01        LDA  #$01           
$1230: 4c 1c 13     JMP  $131c          
$1233: b9 96 18     LDA  $1896,y        
$1236: 9d cb 17     STA  $17cb,x        
$1239: b9 b7 18     LDA  $18b7,y        
$123c: 9d c8 17     STA  $17c8,x        
$123f: a9 03        LDA  #$03           
$1241: 4c 1c 13     JMP  l131c          
$1244: b9 96 18     LDA  $1896,y        
$1247: 30 2f        BMI  l1278          
$1249: 9d cb 17     STA  $17cb,x        
$124c: 9d c8 17     STA  $17c8,x        
$124f: b9 b7 18     LDA  $18b7,y        
$1252: 9d ce 17     STA  $17ce,x        
$1255: 9d d1 17     STA  $17d1,x        
$1258: a9 04        LDA  #$04           
$125a: 4c 1c 13     JMP  l131c          
$125d: b9 96 18     LDA  $1896,y        
$1260: 9d cb 17     STA  $17cb,x        
$1263: 29 7f        AND  #$7f           
$1265: 9d c8 17     STA  $17c8,x        
$1268: b9 b7 18     LDA  $18b7,y        
$126b: 9d d1 17     STA  $17d1,x        
$126e: a9 00        LDA  #$00           
$1270: 9d ce 17     STA  $17ce,x        
$1273: a9 05        LDA  #$05           
$1275: 4c 1c 13     JMP  l131c          
l1278:
$1278: 4c 1a 13     JMP  $131a          
$127b: b9 b7 18     LDA  $18b7,y        
$127e: 29 0f        AND  #$0f           
$1280: 8d 85 17     STA  $1785          
$1283: 4c 1f 13     JMP  l131f          
l1286:
$1286: 38           SEC                 
$1287: b0 45        BCS  l12ce          
$1289: b9 b7 18     LDA  $18b7,y        
$128c: 29 0f        AND  #$0f           
$128e: 9d c8 17     STA  $17c8,x        
$1291: b9 96 18     LDA  $1896,y        
$1294: 18           CLC                 
$1295: 69 01        ADC  #$01           
$1297: 9d cb 17     STA  $17cb,x        
$129a: 4a           LSR                 
$129b: 90 02        BCC  l129f          
$129d: 09 80        ORA  #$80           
l129f:
$129f: 9d ce 17     STA  $17ce,x        
$12a2: a9 02        LDA  #$02           
$12a4: 9d d1 17     STA  $17d1,x        
$12a7: 4c 1c 13     JMP  l131c          
$12aa: b9 96 18     LDA  $1896,y        
$12ad: 9d ef 17     STA  $17ef,x        
$12b0: b9 b7 18     LDA  $18b7,y        
$12b3: 9d f2 17     STA  $17f2,x        
$12b6: 4c 1f 13     JMP  l131f          
$12b9: b9 96 18     LDA  $1896,y        
$12bc: 9d d4 17     STA  $17d4,x        
$12bf: 9d ef 17     STA  $17ef,x        
$12c2: b9 b7 18     LDA  $18b7,y        
$12c5: 9d d7 17     STA  $17d7,x        
$12c8: 9d f2 17     STA  $17f2,x        
$12cb: 4c 1f 13     JMP  l131f          
l12ce:
$12ce: b9 b7 18     LDA  $18b7,y        
$12d1: 9d bf 17     STA  $17bf,x        
$12d4: 4c 1f 13     JMP  l131f          
$12d7: a9 80        LDA  #$80           
$12d9: 8d 8c 17     STA  $178c          
$12dc: b9 b7 18     LDA  $18b7,y        
$12df: 8d 8e 17     STA  $178e          
$12e2: ce 8e 17     DEC  $178e          
$12e5: a9 00        LDA  #$00           
$12e7: 8d 8d 17     STA  $178d          
$12ea: 4c 1f 13     JMP  l131f          
$12ed: b9 b7 18     LDA  $18b7,y        
$12f0: 9d c2 17     STA  $17c2,x        
$12f3: a9 00        LDA  #$00           
$12f5: 9d c5 17     STA  $17c5,x        
$12f8: 4c 1f 13     JMP  l131f          
$12fb: b9 b7 18     LDA  $18b7,y        
$12fe: 8d 80 17     STA  $1780          
$1301: 8d 84 17     STA  $1784          
$1304: a8           TAY                 
$1305: b9 1a 1a     LDA  $1a1a,y        
$1308: c9 7f        CMP  #$7f           
$130a: f0 03        BEQ  l130f          
$130c: ee 84 17     INC  $1784          
l130f:
$130f: b9 19 1a     LDA  $1a19,y        
$1312: a8           TAY                 
$1313: 88           DEY                 
$1314: 8c 83 17     STY  $1783          
$1317: 4c 1f 13     JMP  l131f          
l131a:
$131a: a9 00        LDA  #$00           
l131c:
$131c: 9d bc 17     STA  $17bc,x        
l131f:
$131f: bd a1 17     LDA  $17a1,x        
$1322: d0 06        BNE  l132a          
$1324: bd a4 17     LDA  $17a4,x        
$1327: 4c 3e 13     JMP  $133e          
l132a:
$132a: bd a4 17     LDA  $17a4,x        
$132d: f0 39        BEQ  l1368          
$132f: c9 7e        CMP  #$7e           
$1331: f0 39        BEQ  l136c          
$1333: a8           TAY                 
$1334: 18           CLC                 
$1335: 7d b3 17     ADC  $17b3,x        
$1338: dd b9 17     CMP  $17b9,x        
$133b: f0 34        BEQ  l1371          
$133d: 98           TYA                 
l133e:
$133e: 9d b6 17     STA  $17b6,x        
$1341: 18           CLC                 
$1342: 7d b3 17     ADC  $17b3,x        
$1345: 9d b9 17     STA  $17b9,x        
$1348: a8           TAY                 
$1349: bd bc 17     LDA  $17bc,x        
$134c: c9 03        CMP  #$03           
$134e: f0 10        BEQ  l1360          
$1350: c9 04        CMP  #$04           
$1352: f0 0c        BEQ  l1360          
$1354: b9 01 17     LDA  $1701,y        
$1357: 9d da 17     STA  $17da,x        
$135a: b9 a1 16     LDA  $16a1,y        
$135d: 9d dd 17     STA  $17dd,x        
l1360:
$1360: bd a1 17     LDA  $17a1,x        
$1363: d0 07        BNE  l136c          
$1365: 4c 82 15     JMP  $1582          
l1368:
$1368: a9 fe        LDA  #$fe           
$136a: d0 02        BNE  l136e          
l136c:
$136c: a9 ff        LDA  #$ff           
l136e:
$136e: 9d f5 17     STA  $17f5,x        
l1371:
$1371: a9 00        LDA  #$00           
$1373: 9d a1 17     STA  $17a1,x        
$1376: 4c e1 15     JMP  $15e1          
l1379:
$1379: bd bc 17     LDA  $17bc,x        
$137c: a8           TAY                 
$137d: b9 71 17     LDA  $1771,y        
$1380: 8d 85 13     STA  $1385          
$1383: 38           SEC                 
$1384: b0 06        BCS  l138c          
$1386: 4c f2 14     JMP  $14f2          
$1389: 4c 14 14     JMP  $1414          
l138c:
$138c: 4c 82 14     JMP  $1482          
$138f: 4c bc 14     JMP  $14bc          
$1392: bd da 17     LDA  $17da,x        
$1395: 18           CLC                 
$1396: 7d c8 17     ADC  $17c8,x        
$1399: 9d da 17     STA  $17da,x        
$139c: bd dd 17     LDA  $17dd,x        
$139f: 7d cb 17     ADC  $17cb,x        
$13a2: 9d dd 17     STA  $17dd,x        
$13a5: 4c f2 14     JMP  l14f2          
$13a8: bc b9 17     LDY  $17b9,x        
$13ab: b9 02 17     LDA  $1702,y        
$13ae: f9 01 17     SBC  $1701,y        
$13b1: 85 fc        STA  $fc            
$13b3: b9 a2 16     LDA  $16a2,y        
$13b6: f9 a1 16     SBC  $16a1,y        
$13b9: 85 fd        STA  $fd            
$13bb: bd ce 17     LDA  $17ce,x        
$13be: c9 80        CMP  #$80           
$13c0: 29 00        AND  #$00           
$13c2: 7d c8 17     ADC  $17c8,x        
$13c5: a8           TAY                 
l13c6:
$13c6: 88           DEY                 
$13c7: 30 07        BMI  l13d0          
$13c9: 46 fd        LSR  $fd            
$13cb: 66 fc        ROR  $fc            
$13cd: 4c c6 13     JMP  $13c6          
l13d0:
$13d0: bd d1 17     LDA  $17d1,x        
$13d3: 29 01        AND  #$01           
$13d5: d0 14        BNE  l13eb          
$13d7: bd da 17     LDA  $17da,x        
$13da: 18           CLC                 
$13db: 65 fc        ADC  $fc            
$13dd: 9d da 17     STA  $17da,x        
$13e0: bd dd 17     LDA  $17dd,x        
$13e3: 65 fd        ADC  $fd            
$13e5: 9d dd 17     STA  $17dd,x        
$13e8: 4c fc 13     JMP  $13fc          
l13eb:
$13eb: bd da 17     LDA  $17da,x        
$13ee: 38           SEC                 
$13ef: e5 fc        SBC  $fc            
$13f1: 9d da 17     STA  $17da,x        
$13f4: bd dd 17     LDA  $17dd,x        
$13f7: e5 fd        SBC  $fd            
$13f9: 9d dd 17     STA  $17dd,x        
l13fc:
$13fc: bd ce 17     LDA  $17ce,x        
$13ff: 29 7f        AND  #$7f           
$1401: 18           CLC                 
$1402: 69 01        ADC  #$01           
$1404: dd cb 17     CMP  $17cb,x        
$1407: 90 05        BCC  l140e          
$1409: fe d1 17     INC  $17d1,x        
$140c: a9 00        LDA  #$00           
l140e:
$140e: 9d ce 17     STA  $17ce,x        
$1411: 4c f2 14     JMP  l14f2          
l1414:
$1414: bc b9 17     LDY  $17b9,x        
$1417: b9 01 17     LDA  $1701,y        
$141a: 85 fc        STA  $fc            
$141c: b9 a1 16     LDA  $16a1,y        
$141f: 85 fd        STA  $fd            
$1421: bd da 17     LDA  $17da,x        
$1424: 38           SEC                 
$1425: e5 fc        SBC  $fc            
$1427: 9d da 17     STA  $17da,x        
$142a: bd dd 17     LDA  $17dd,x        
$142d: e5 fd        SBC  $fd            
$142f: 9d dd 17     STA  $17dd,x        
$1432: 30 18        BMI  l144c          
$1434: bd da 17     LDA  $17da,x        
$1437: 38           SEC                 
$1438: fd c8 17     SBC  $17c8,x        
$143b: 9d da 17     STA  $17da,x        
$143e: bd dd 17     LDA  $17dd,x        
$1441: fd cb 17     SBC  $17cb,x        
$1444: 9d dd 17     STA  $17dd,x        
$1447: 10 25        BPL  l146e          
$1449: 4c 61 14     JMP  $1461          
l144c:
$144c: bd da 17     LDA  $17da,x        
$144f: 18           CLC                 
$1450: 7d c8 17     ADC  $17c8,x        
$1453: 9d da 17     STA  $17da,x        
$1456: bd dd 17     LDA  $17dd,x        
$1459: 7d cb 17     ADC  $17cb,x        
$145c: 9d dd 17     STA  $17dd,x        
$145f: 30 0d        BMI  l146e          
l1461:
$1461: a5 fc        LDA  $fc            
$1463: 9d da 17     STA  $17da,x        
$1466: a5 fd        LDA  $fd            
$1468: 9d dd 17     STA  $17dd,x        
$146b: 4c 7f 14     JMP  $147f          
l146e:
$146e: bd da 17     LDA  $17da,x        
$1471: 18           CLC                 
$1472: 65 fc        ADC  $fc            
$1474: 9d da 17     STA  $17da,x        
$1477: bd dd 17     LDA  $17dd,x        
$147a: 65 fd        ADC  $fd            
$147c: 9d dd 17     STA  $17dd,x        
l147f:
$147f: 4c f2 14     JMP  l14f2          
l1482:
$1482: bc d1 17     LDY  $17d1,x        
$1485: de c8 17     DEC  $17c8,x        
$1488: 10 1b        BPL  l14a5          
$148a: c8           INY                 
$148b: b9 d7 19     LDA  $19d7,y        
$148e: 30 0b        BMI  l149b          
$1490: c9 70        CMP  #$70           
$1492: 30 07        BMI  l149b          
$1494: 29 0f        AND  #$0f           
$1496: 18           CLC                 
$1497: 7d ce 17     ADC  $17ce,x        
$149a: a8           TAY                 
l149b:
$149b: 98           TYA                 
$149c: 9d d1 17     STA  $17d1,x        
$149f: bd cb 17     LDA  $17cb,x        
$14a2: 9d c8 17     STA  $17c8,x        
l14a5:
$14a5: b9 d7 19     LDA  $19d7,y        
$14a8: 18           CLC                 
$14a9: 7d b9 17     ADC  $17b9,x        
$14ac: a8           TAY                 
$14ad: b9 01 17     LDA  $1701,y        
$14b0: 9d da 17     STA  $17da,x        
$14b3: b9 a1 16     LDA  $16a1,y        
$14b6: 9d dd 17     STA  $17dd,x        
$14b9: 4c f2 14     JMP  l14f2          
l14bc:
$14bc: de c8 17     DEC  $17c8,x        
$14bf: 10 31        BPL  l14f2          
$14c1: bd cb 17     LDA  $17cb,x        
$14c4: 30 06        BMI  l14cc          
$14c6: fe ce 17     INC  $17ce,x        
$14c9: 4c d1 14     JMP  $14d1          
l14cc:
$14cc: de ce 17     DEC  $17ce,x        
$14cf: 29 7f        AND  #$7f           
l14d1:
$14d1: 9d c8 17     STA  $17c8,x        
$14d4: de d1 17     DEC  $17d1,x        
$14d7: d0 05        BNE  l14de          
$14d9: a9 00        LDA  #$00           
$14db: 9d bc 17     STA  $17bc,x        
l14de:
$14de: bd b9 17     LDA  $17b9,x        
$14e1: 18           CLC                 
$14e2: 7d ce 17     ADC  $17ce,x        
$14e5: a8           TAY                 
$14e6: b9 01 17     LDA  $1701,y        
$14e9: 9d da 17     STA  $17da,x        
$14ec: b9 a1 16     LDA  $16a1,y        
$14ef: 9d dd 17     STA  $17dd,x        
l14f2:
$14f2: bc c2 17     LDY  $17c2,x        
$14f5: b9 3e 19     LDA  $193e,y        
$14f8: c9 7f        CMP  #$7f           
$14fa: d0 0c        BNE  l1508          
$14fc: b9 70 19     LDA  $1970,y        
$14ff: dd c2 17     CMP  $17c2,x        
$1502: f0 3c        BEQ  l1540          
$1504: 9d c2 17     STA  $17c2,x        
$1507: a8           TAY                 
l1508:
$1508: b9 3e 19     LDA  $193e,y        
$150b: 10 0c        BPL  l1519          
$150d: 9d e9 17     STA  $17e9,x        
$1510: b9 57 19     LDA  $1957,y        
$1513: 9d e6 17     STA  $17e6,x        
$1516: 4c 2d 15     JMP  $152d          
l1519:
$1519: 85 fc        STA  $fc            
$151b: bd e6 17     LDA  $17e6,x        
$151e: 18           CLC                 
$151f: 79 57 19     ADC  $1957,y        
$1522: 9d e6 17     STA  $17e6,x        
$1525: bd e9 17     LDA  $17e9,x        
$1528: 65 fc        ADC  $fc            
$152a: 9d e9 17     STA  $17e9,x        
l152d:
$152d: fe c5 17     INC  $17c5,x        
$1530: bd c5 17     LDA  $17c5,x        
$1533: d9 70 19     CMP  $1970,y        
$1536: 90 08        BCC  l1540          
$1538: fe c2 17     INC  $17c2,x        
$153b: a9 00        LDA  #$00           
$153d: 9d c5 17     STA  $17c5,x        
l1540:
$1540: bc bf 17     LDY  $17bf,x        
$1543: b9 da 18     LDA  $18da,y        
$1546: c9 7f        CMP  #$7f           
$1548: d0 0a        BNE  l1554          
$154a: b9 0c 19     LDA  $190c,y        
$154d: 9d bf 17     STA  $17bf,x        
$1550: a8           TAY                 
$1551: b9 da 18     LDA  $18da,y        
l1554:
$1554: 9d ec 17     STA  $17ec,x        
$1557: b9 0c 19     LDA  $190c,y        
$155a: f0 17        BEQ  l1573          
$155c: c9 81        CMP  #$81           
$155e: b0 04        BCS  l1564          
$1560: 18           CLC                 
$1561: 7d b9 17     ADC  $17b9,x        
l1564:
$1564: 29 7f        AND  #$7f           
$1566: a8           TAY                 
$1567: b9 01 17     LDA  $1701,y        
$156a: 9d e0 17     STA  $17e0,x        
$156d: b9 a1 16     LDA  $16a1,y        
$1570: 4c 7c 15     JMP  $157c          
l1573:
$1573: bd da 17     LDA  $17da,x        
$1576: 9d e0 17     STA  $17e0,x        
$1579: bd dd 17     LDA  $17dd,x        
l157c:
$157c: 9d e3 17     STA  $17e3,x        
$157f: fe bf 17     INC  $17bf,x        
l1582:
$1582: bc 77 17     LDY  $1777,x        
$1585: bd e0 17     LDA  $17e0,x        
$1588: 99 00 d4     STA  $d400,y        
$158b: bd e3 17     LDA  $17e3,x        
$158e: 99 01 d4     STA  $d401,y        
$1591: bd f2 17     LDA  $17f2,x        
$1594: 99 06 d4     STA  $d406,y        
$1597: bd ef 17     LDA  $17ef,x        
$159a: 99 05 d4     STA  $d405,y        
$159d: bd e6 17     LDA  $17e6,x        
$15a0: 99 02 d4     STA  $d402,y        
$15a3: bd e9 17     LDA  $17e9,x        
$15a6: 99 03 d4     STA  $d403,y        
$15a9: bd ec 17     LDA  $17ec,x        
$15ac: 3d f5 17     AND  $17f5,x        
$15af: 99 04 d4     STA  $d404,y        
$15b2: bd f8 17     LDA  $17f8,x        
$15b5: d0 2a        BNE  l15e1          
$15b7: bd a1 17     LDA  $17a1,x        
$15ba: f0 25        BEQ  l15e1          
$15bc: bd bc 17     LDA  $17bc,x        
$15bf: c9 03        CMP  #$03           
$15c1: f0 1b        BEQ  l15de          
$15c3: c9 04        CMP  #$04           
$15c5: f0 17        BEQ  l15de          
$15c7: bd a4 17     LDA  $17a4,x        
$15ca: f0 12        BEQ  l15de          
$15cc: c9 7e        CMP  #$7e           
$15ce: f0 0e        BEQ  l15de          
$15d0: 18           CLC                 
$15d1: 7d b3 17     ADC  $17b3,x        
$15d4: dd b9 17     CMP  $17b9,x        
$15d7: f0 05        BEQ  l15de          
$15d9: a9 00        LDA  #$00           
$15db: 9d bc 17     STA  $17bc,x        
l15de:
$15de: 4c 02 12     JMP  $1202          
l15e1:
$15e1: bd f8 17     LDA  $17f8,x        
$15e4: 30 03        BMI  l15e9          
$15e6: de f8 17     DEC  $17f8,x        
l15e9:
$15e9: ca           DEX                 
$15ea: 30 03        BMI  l15ef          
$15ec: 4c 6f 10     JMP  $106f          
l15ef:
$15ef: ad 8c 17     LDA  $178c          
$15f2: 30 61        BMI  l1655          
$15f4: f0 64        BEQ  l165a          
$15f6: ac 8e 17     LDY  $178e          
$15f9: ce 8d 17     DEC  $178d          
$15fc: 10 41        BPL  l163f          
$15fe: c8           INY                 
$15ff: b9 89 19     LDA  $1989,y        
$1602: c9 7f        CMP  #$7f           
$1604: d0 12        BNE  l1618          
$1606: 98           TYA                 
$1607: d9 bd 19     CMP  $19bd,y        
$160a: d0 08        BNE  l1614          
$160c: a9 00        LDA  #$00           
$160e: 8d 8c 17     STA  $178c          
$1611: 4c 5a 16     JMP  l165a          
l1614:
$1614: b9 bd 19     LDA  $19bd,y        
$1617: a8           TAY                 
l1618:
$1618: b9 89 19     LDA  $1989,y        
$161b: 10 1c        BPL  l1639          
$161d: 29 70        AND  #$70           
$161f: 8d 86 17     STA  $1786          
$1622: b9 89 19     LDA  $1989,y        
$1625: 29 0f        AND  #$0f           
$1627: 8d 8a 17     STA  $178a          
$162a: b9 a3 19     LDA  $19a3,y        
$162d: 8d 89 17     STA  $1789          
$1630: b9 bd 19     LDA  $19bd,y        
$1633: 8d 87 17     STA  $1787          
$1636: 4c 52 16     JMP  $1652          
l1639:
$1639: b9 bd 19     LDA  $19bd,y        
$163c: 8d 8d 17     STA  $178d          
l163f:
$163f: ad 89 17     LDA  $1789          
$1642: 18           CLC                 
$1643: 79 a3 19     ADC  $19a3,y        
$1646: 8d 89 17     STA  $1789          
$1649: ad 8a 17     LDA  $178a          
$164c: 79 89 19     ADC  $1989,y        
$164f: 8d 8a 17     STA  $178a          
l1652:
$1652: 8c 8e 17     STY  $178e          
l1655:
$1655: a9 40        LDA  #$40           
$1657: 8d 8c 17     STA  $178c          
l165a:
$165a: ad 8a 17     LDA  $178a          
$165d: 85 fc        STA  $fc            
$165f: ad 89 17     LDA  $1789          
$1662: 46 fc        LSR  $fc            
$1664: 6a           ROR                 
$1665: aa           TAX                 
$1666: 46 fc        LSR  $fc            
$1668: 6a           ROR                 
$1669: 46 fc        LSR  $fc            
$166b: 6a           ROR                 
$166c: 46 fc        LSR  $fc            
$166e: 6a           ROR                 
$166f: a8           TAY                 
$1670: ad 87 17     LDA  $1787          
$1673: 0d 88 17     ORA  $1788          
$1676: 8d 17 d4     STA  $d417          
$1679: 8c 16 d4     STY  $d416          
$167c: 8a           TXA                 
$167d: 29 07        AND  #$07           
$167f: 8d 15 d4     STA  $d415          
$1682: ad 85 17     LDA  $1785          
$1685: 0d 86 17     ORA  $1786          
$1688: 8d 18 d4     STA  $d418          
$168b: ad 8b 17     LDA  $178b          
$168e: 8d 88 17     STA  $1788          
$1691: 60           RTS                 
l1692:
$1692: 8d 82 17     STA  $1782          
$1695: a9 00        LDA  #$00           
$1697: 8d 81 17     STA  $1781          
$169a: 60           RTS                 
l169b:
$169b: a9 40        LDA  #$40           
$169d: 8d 81 17     STA  $1781          
$16a0: 60           RTS                 
$16a1: 01 01        ORA  ($01,x)        
$16a3: 01 01        ORA  ($01,x)        
$16a5: 01 01        ORA  ($01,x)        
$16a7: 01 01        ORA  ($01,x)        
$16a9: 01 01        ORA  ($01,x)        
$16ab: 01 02        ORA  ($02,x)        
$16ad: 02           JAM                 
$16ae: 02           JAM                 
$16af: 02           JAM                 
$16b0: 02           JAM                 
$16b1: 02           JAM                 
$16b2: 02           JAM                 
$16b3: 03 03        SLO  ($03,x)        
$16b5: 03 03        SLO  ($03,x)        
$16b7: 03 04        SLO  ($04,x)        
$16b9: 04 04        NOP  $04            
$16bb: 04 05        NOP  $05            
$16bd: 05 05        ORA  $05            
$16bf: 06 06        ASL  $06            
$16c1: 06 07        ASL  $07            
$16c3: 07 08        SLO  $08            
$16c5: 08           PHP                 
$16c6: 09 09        ORA  #$09           
$16c8: 0a           ASL                 
$16c9: 0a           ASL                 
$16ca: 0b 0c        ANC  #$0c           
$16cc: 0d 0d 0e     ORA  $0e0d          
$16cf: 0f 10 11     SLO  $1110          
l16d2:
$16d2: 12           JAM                 
$16d3: 13 14        SLO  ($14),y        
$16d5: 15 17        ORA  $17,x          
$16d7: 18           CLC                 
$16d8: 1a           NOP                 
$16d9: 1b 1d 1f     SLO  $1f1d,y        
$16dc: 20 22 24     JSR  $2422          
$16df: 27 29        RLA  $29            
$16e1: 2b 2e        ANC  #$2e           
$16e3: 31 34        AND  ($34),y        
$16e5: 37 3a        RLA  $3a,x          
$16e7: 3e 41 45     ROL  $4541,x        
$16ea: 49 4e        EOR  #$4e           
$16ec: 52           JAM                 
$16ed: 57 5c        SRE  $5c,x          
$16ef: 62           JAM                 
$16f0: 68           PLA                 
$16f1: 6e 75 7c     ROR  $7c75          
$16f4: 83 8b        SAX  ($8b,x)        
$16f6: 93 9c        AHX  ($9c),y        
$16f8: a5 af        LDA  $af            
$16fa: b9 c4 d0     LDA  $d0c4,y        
$16fd: dd ea f8     CMP  $f8ea,x        
$1700: fd 16 27     SBC  $2716,x        
$1703: 38           SEC                 
$1704: 4b 5f        ALR  #$5f           
$1706: 73 8a        RRA  ($8a),y        
$1708: a1 ba        LDA  ($ba,x)        
$170a: d4 f0        NOP  $f0,x          
$170c: 0e 2d 4e     ASL  $4e2d          
$170f: 71 96        ADC  ($96),y        
$1711: bd e7 13     LDA  $13e7,x        
$1714: 42           JAM                 
$1715: 74 a9        NOP  $a9,x          
$1717: e0 1b        CPX  #$1b           
$1719: 5a           NOP                 
$171a: 9b e2 2c     TAS  $2ce2,y        
$171d: 7b ce 27     RRA  $27ce,y        
$1720: 85 e8        STA  $e8            
$1722: 51 c1        EOR  ($c1),y        
$1724: 37 b4        RLA  $b4,x          
$1726: 37 c4        RLA  $c4,x          
$1728: 57 f5        SRE  $f5,x          
$172a: 9c 4e 09     SHY  $094e,x        
$172d: d0 a3        BNE  l16d2          
$172f: 82 6e        NOP  #$6e           
$1731: 68           PLA                 
$1732: 6e 88 af     ROR  $af88          
$1735: eb 39        SBC  #$39           
$1737: 9c 13 a1     SHY  $a113,x        
$173a: 46 04        LSR  $04            
$173c: dc d0 dc     NOP  $dcd0,x        
$173f: 10 5e        BPL  l179f          
$1741: d6 72        DEC  $72,x          
$1743: 38           SEC                 
$1744: 26 42        ROL  $42            
$1746: 8c 08 b8     STY  $b808          
$1749: a0 b8        LDY  #$b8           
$174b: 20 bc ac     JSR  $acbc          
$174e: e4 70        CPX  $70            
$1750: 4c 84 18     JMP  $1884          
$1753: 10 70        BPL  l17c5          
$1755: 40           RTI                 
$1756: 70 40        BVS  l1798          
$1758: 78           SEI                 
$1759: 58           CLI                 
$175a: c8           INY                 
$175b: e0 98        CPX  #$98           
$175d: 08           PHP                 
$175e: 30 20        BMI  l1780          
$1760: 2e 99 00     ROL  $0099          
$1763: aa           TAX                 
$1764: bb d4 2d     LAS  $2dd4,y        
$1767: 2d 2d 21     AND  $212d          
$176a: 30 4e        BMI  l17ba          
$176c: 45 64        EOR  $64            
$176e: 72           JAM                 
$176f: f2           JAM                 
$1770: 2d 00 0c     AND  $0c00          
$1773: 22           JAM                 
$1774: 03 06        SLO  ($06,x)        
$1776: 09 00        ORA  #$00           
$1778: 07 0e        SLO  $0e            
$177a: 01 02        ORA  ($02,x)        
$177c: 04 fe        NOP  $fe            
$177e: fd fb 00     SBC  $00fb,x        
$1781: 40           RTI                 
$1782: 00           BRK                 
$1783: 01 01        ORA  ($01,x)        
$1785: 0f 10 f2     SLO  $f210          
$1788: 00           BRK                 
$1789: 29 10        AND  #$10           
$178b: 00           BRK                 
$178c: 00           BRK                 
$178d: ff 04 01     ISC  $0104,x        
$1790: 01 01        ORA  ($01,x)        
$1792: 02           JAM                 
$1793: 02           JAM                 
$1794: 02           JAM                 
$1795: 01 01        ORA  ($01,x)        
$1797: 01 00        ORA  ($00,x)        
$1799: 00           BRK                 
$179a: 00           BRK                 
$179b: 0e 00 0a     ASL  $0a00          
$179e: 0b 0f        ANC  #$0f           
$17a0: 0a           ASL                 
$17a1: 00           BRK                 
$17a2: 00           BRK                 
$17a3: 00           BRK                 
$17a4: 00           BRK                 
$17a5: 00           BRK                 
$17a6: 7e 00 01     ROR  $0100,x        
$17a9: 08           PHP                 
$17aa: 1a           NOP                 
$17ab: 00           BRK                 
$17ac: 1f 00 01     SLO  $0100,x        
$17af: 08           PHP                 
$17b0: 00           BRK                 
$17b1: 00           BRK                 
$17b2: 00           BRK                 
$17b3: 0c 00 00     NOP  $0000          
$17b6: 29 0e        AND  #$0e           
$17b8: 1a           NOP                 
$17b9: 35 0e        AND  $0e,x          
$17bb: 1a           NOP                 
$17bc: 04 00        NOP  $00            
$17be: 00           BRK                 
$17bf: 03 08        SLO  ($08,x)        
$17c1: 2a           ROL                 
$17c2: 0a           ASL                 
$17c3: 04 05        NOP  $05            
l17c5:
$17c5: 03 11        SLO  ($11,x)        
$17c7: 03 01        SLO  ($01,x)        
$17c9: 00           BRK                 
$17ca: 03 01        SLO  ($01,x)        
$17cc: 00           BRK                 
$17cd: 05 3d        ORA  $3d            
$17cf: 00           BRK                 
$17d0: 02           JAM                 
$17d1: 3d 00 0b     AND  $0b00,x        
$17d4: 05 00        ORA  $00            
$17d6: 00           BRK                 
$17d7: 3a           NOP                 
$17d8: f7 a8        ISC  $a8,x          
$17da: 39 71 e2     AND  $e271,y        
$17dd: 17 02        SLO  $02,x          
$17df: 04 39        NOP  $39            
$17e1: 71 e2        ADC  ($e2),y        
$17e3: 17 02        SLO  $02,x          
$17e5: 04 60        NOP  $60            
$17e7: 80 40        NOP  #$40           
$17e9: ef 83 b4     ISC  $b483          
$17ec: 41 41        EOR  ($41,x)        
$17ee: 20 05 00     JSR  $0005          
$17f1: 00           BRK                 
$17f2: 3a           NOP                 
$17f3: f7 ab        ISC  $ab,x          
$17f5: fe fe ff     INC  $fffe,x        
$17f8: ff ff ff     ISC  $ffff,x        
$17fb: 00           BRK                 
$17fc: 0f 05 00     SLO  z05            
$17ff: 00           BRK                 
$1800: 02           JAM                 
$1801: 02           JAM                 
$1802: 00           BRK                 
$1803: 02           JAM                 
$1804: 00           BRK                 
$1805: 00           BRK                 
$1806: 00           BRK                 
$1807: 10 20        BPL  l1829          
$1809: a0 e0        LDY  #$e0           
$180b: d0 00        BNE  l180d          
l180d:
$180d: 00           BRK                 
$180e: 05 00        ORA  $00            
$1810: 00           BRK                 
$1811: 3a           NOP                 
$1812: f7 f6        ISC  $f6,x          
$1814: 07 f7        SLO  $f7            
$1816: 67 88        RRA  $88            
$1818: 88           DEY                 
$1819: a8           TAY                 
$181a: 48           PHA                 
$181b: 24 3a        BIT  $3a            
$181d: 25 03        AND  $03            
$181f: 03 12        SLO  ($12,x)        
$1821: 8a           TXA                 
$1822: 66 78        ROR  $78            
$1824: f7 80        ISC  $80,x          
$1826: c0 c0        CPY  #$c0           
$1828: c0 c0        CPY  #$c0           
$182a: 00           BRK                 
$182b: c0 c0        CPY  #$c0           
$182d: 80 00        NOP  #$00           
$182f: 80 80        NOP  #$80           
$1831: 00           BRK                 
$1832: 80 80        NOP  #$80           
$1834: a0 80        LDY  #$80           
$1836: 80 80        NOP  #$80           
$1838: c0 00        CPY  #$00           
$183a: 00           BRK                 
$183b: 06 0b        ASL  $0b            
$183d: 0d 00 0f     ORA  $0f00          
$1840: 10 00        BPL  l1842          
l1842:
$1842: 00           BRK                 
$1843: 00           BRK                 
$1844: 00           BRK                 
$1845: 00           BRK                 
$1846: 00           BRK                 
$1847: 00           BRK                 
$1848: 0b 00        ANC  #$00           
$184a: 00           BRK                 
$184b: 00           BRK                 
$184c: 16 09        ASL  $09,x          
$184e: 00           BRK                 
$184f: 07 00        SLO  $00            
$1851: 00           BRK                 
$1852: 00           BRK                 
$1853: 00           BRK                 
$1854: 00           BRK                 
$1855: 00           BRK                 
$1856: 00           BRK                 
$1857: 00           BRK                 
$1858: 00           BRK                 
$1859: 00           BRK                 
$185a: 00           BRK                 
$185b: 00           BRK                 
$185c: 00           BRK                 
$185d: 00           BRK                 
$185e: 0e 13 07     ASL  $0713          
$1861: 00           BRK                 
$1862: 04 09        NOP  $09            
$1864: 0e 04 00     ASL  $0004          
$1867: 11 16        ORA  ($16),y        
$1869: 18           CLC                 
$186a: 1a           NOP                 
$186b: 1d 1f 30     ORA  $301f,x        
$186e: 1b 22 24     SLO  l2422,y        
$1871: 27 00        RLA  $00            
$1873: 02           JAM                 
$1874: 2b 02        ANC  #$02           
$1876: 02           JAM                 
$1877: 01 01        ORA  ($01,x)        
$1879: 03 03        SLO  ($03,x)        
$187b: 03 03        SLO  ($03,x)        
$187d: 03 03        SLO  ($03,x)        
$187f: 03 03        SLO  ($03,x)        
$1881: 03 03        SLO  ($03,x)        
$1883: 03 03        SLO  ($03,x)        
$1885: 08           PHP                 
$1886: 08           PHP                 
$1887: 00           BRK                 
$1888: 00           BRK                 
$1889: 00           BRK                 
$188a: 0a           ASL                 
$188b: 02           JAM                 
$188c: 03 03        SLO  ($03,x)        
$188e: 03 03        SLO  ($03,x)        
$1890: 02           JAM                 
$1891: 02           JAM                 
$1892: 02           JAM                 
$1893: 08           PHP                 
$1894: 0b 08        ANC  #$08           
$1896: 01 80        ORA  ($80,x)        
$1898: 03 04        SLO  ($04,x)        
$189a: 01 01        ORA  ($01,x)        
$189c: 01 01        ORA  ($01,x)        
$189e: 01 01        ORA  ($01,x)        
$18a0: 01 01        ORA  ($01,x)        
$18a2: 01 01        ORA  ($01,x)        
$18a4: 01 01        ORA  ($01,x)        
$18a6: 00           BRK                 
$18a7: 00           BRK                 
$18a8: ff ff ff     ISC  $ffff,x        
$18ab: 00           BRK                 
$18ac: 01 01        ORA  ($01,x)        
$18ae: 01 01        ORA  ($01,x)        
$18b0: 01 00        ORA  ($00,x)        
$18b2: 02           JAM                 
$18b3: 00           BRK                 
$18b4: 00           BRK                 
$18b5: 00           BRK                 
$18b6: 00           BRK                 
$18b7: 00           BRK                 
$18b8: 00           BRK                 
$18b9: 03 03        SLO  ($03,x)        
$18bb: 00           BRK                 
$18bc: 04 08        NOP  $08            
$18be: 0c 10 14     NOP  $1410          
$18c1: 18           CLC                 
$18c2: 1c 20 24     NOP  $2420,x        
$18c5: 28           PLP                 
$18c6: 2c 28 14     BIT  $1428          
$18c9: f0 f4        BEQ  l18bf          
$18cb: 80 13        NOP  #$13           
$18cd: c0 30        CPY  #$30           
$18cf: 35 39        AND  $39,x          
$18d1: 3d 30 00     AND  $0030,x        
$18d4: a0 00        LDY  #$00           
$18d6: 29 ab        AND  #$ab           
$18d8: 0f 00 21     SLO  $2100          
$18db: 21 41        AND  ($41,x)        
$18dd: 7f 81 41     RRA  $4181,x        
$18e0: 41 41        EOR  ($41,x)        
$18e2: 7f 81 41     RRA  $4181,x        
$18e5: 80 80        NOP  #$80           
$18e7: 7f 81 01     RRA  $0181,x        
$18ea: 7f 81 15     RRA  $1581,x        
$18ed: 11 11        ORA  ($11),y        
$18ef: 7f 81 7f     RRA  $7f81,x        
$18f2: 21 7f        AND  ($7f,x)        
$18f4: 21 11        AND  ($11,x)        
$18f6: 7f 51 7f     RRA  $7f51,x        
$18f9: 15 40        ORA  $40,x          
$18fb: 7f 53 7f     RRA  $7f53,x        
$18fe: 81 01        STA  ($01,x)        
$1900: 7f 41 7f     RRA  $7f41,x        
$1903: 20 7f 81     JSR  $817f          
$1906: 41 40        EOR  ($40,x)        
$1908: 80 7f        NOP  #$7f           
$190a: 13 7f        SLO  ($7f),y        
$190c: 80 80        NOP  #$80           
$190e: 00           BRK                 
$190f: 02           JAM                 
$1910: c0 a1        CPY  #$a1           
$1912: 9a           TXS                 
$1913: 00           BRK                 
$1914: 07 c4        SLO  $c4            
$1916: ac c0 bc     LDY  $bcc0          
$1919: 0c c0 00     NOP  $00c0          
l191c:
$191c: 0f c0 00     SLO  $00c0          
$191f: 76 74        ROR  $74,x          
$1921: 14 b4        NOP  $b4,x          
$1923: 12           JAM                 
$1924: 00           BRK                 
$1925: 18           CLC                 
$1926: 00           BRK                 
$1927: 00           BRK                 
$1928: 1b 00 1d     SLO  $1d00,y        
$192b: c5 00        CMP  $00            
$192d: 20 00 22     JSR  $2200          
$1930: c0 00        CPY  #$00           
$1932: 25 00        AND  $00            
$1934: 27 00        RLA  $00            
$1936: 29 c7        AND  #$c7           
$1938: ae a5 c0     LDX  $c0a5          
$193b: 2e 00 30     ROL  $3000          
$193e: 88           DEY                 
l193f:
$193f: 00           BRK                 
$1940: 81 00        STA  ($00,x)        
$1942: 00           BRK                 
$1943: 0f 7f 88     SLO  $887f          
$1946: 7f 88 0f     RRA  $0f88,x        
$1949: 0f 00 7f     SLO  $7f00          
$194c: 88           DEY                 
l194d:
$194d: 00           BRK                 
$194e: 0f 00 7f     SLO  $7f00          
$1951: 86 00        STX  $00            
$1953: 0f 00 0f     SLO  $0f00          
$1956: 7f 00 00     RRA  $0000,x        
$1959: 70 40        BVS  l199b          
$195b: 10 f0        BPL  l194d          
$195d: 00           BRK                 
$195e: 00           BRK                 
$195f: 00           BRK                 
$1960: 00           BRK                 
$1961: a0 f0        LDY  #$f0           
$1963: 10 00        BPL  l1965          
l1965:
$1965: 00           BRK                 
$1966: 80 f0        NOP  #$f0           
$1968: 10 00        BPL  l196a          
l196a:
$196a: 00           BRK                 
$196b: 80 80        NOP  #$80           
$196d: 30 d0        BMI  l193f          
$196f: 00           BRK                 
$1970: 00           BRK                 
$1971: 01 00        ORA  ($00,x)        
$1973: 04 20        NOP  $20            
$1975: 20 04 00     JSR  $0004          
$1978: 07 00        SLO  $00            
$197a: 05 20        ORA  $20            
$197c: 20 0a 00     JSR  $000a          
$197f: 0f 30 30     SLO  $3030          
$1982: 10 00        BPL  l1984          
l1984:
$1984: 10 10        BPL  l1996          
$1986: 30 30        BMI  l19b8          
$1988: 16 9f        ASL  $9f,x          
$198a: 90 90        BCC  l191c          
$198c: 90 0f        BCC  l199d          
$198e: 7f a4 90     RRA  $90a4,x        
$1991: c1 a5        CMP  ($a5,x)        
$1993: 7f a9 7f     RRA  $7fa9,x        
l1996:
$1996: a9 7f        LDA  #$7f           
$1998: a9 97        LDA  #$97           
$199a: 0e 7f a9     ASL  $a97f          
l199d:
$199d: 0f 7f 9f     SLO  $9f7f          
$19a0: 00           BRK                 
$19a1: e2 7f        NOP  #$7f           
$19a3: 00           BRK                 
$19a4: 2c 24 3a     BIT  $3a24          
$19a7: ff 00 30     ISC  $3000,x        
$19aa: 4f 70 70     SRE  $7070          
$19ad: 00           BRK                 
$19ae: 00           BRK                 
$19af: 00           BRK                 
$19b0: 00           BRK                 
$19b1: 00           BRK                 
$19b2: 00           BRK                 
$19b3: 00           BRK                 
$19b4: 10 00        BPL  l19b6          
l19b6:
$19b6: 00           BRK                 
$19b7: a6 00        LDX  $00            
l19b9:
$19b9: 00           BRK                 
$19ba: 00           BRK                 
$19bb: 00           BRK                 
$19bc: 00           BRK                 
$19bd: f2           JAM                 
$19be: f2           JAM                 
$19bf: f2           JAM                 
$19c0: f2           JAM                 
$19c1: 10 05        BPL  l19c8          
$19c3: f2           JAM                 
$19c4: 02           JAM                 
$19c5: f2           JAM                 
$19c6: f2           JAM                 
$19c7: 0a           ASL                 
l19c8:
$19c8: f2           JAM                 
$19c9: 0b f2        ANC  #$f2           
$19cb: 01 f2        ORA  ($f2,x)        
$19cd: f2           JAM                 
$19ce: 02           JAM                 
$19cf: 12           JAM                 
$19d0: f2           JAM                 
$19d1: 18           CLC                 
$19d2: 15 f2        ORA  $f2,x          
$19d4: 01 f2        ORA  ($f2,x)        
$19d6: 18           CLC                 
$19d7: 00           BRK                 
$19d8: fc f7 70     NOP  $70f7,x        
$19db: 00           BRK                 
$19dc: fb f6 70     ISC  $70f6,y        
$19df: 00           BRK                 
$19e0: fd f8 70     SBC  $70f8,x        
$19e3: 00           BRK                 
$19e4: fb f6 70     ISC  $70f6,y        
$19e7: 00           BRK                 
$19e8: fb f7 70     ISC  $70f7,y        
$19eb: 00           BRK                 
$19ec: fc f9 70     NOP  $70f9,x        
$19ef: 00           BRK                 
$19f0: fb f8 70     ISC  $70f8,y        
$19f3: 00           BRK                 
$19f4: fd f9 70     SBC  $70f9,x        
$19f7: 00           BRK                 
$19f8: fd fa 70     SBC  $70fa,x        
$19fb: 00           BRK                 
$19fc: f9 f5 70     SBC  $70f5,y        
$19ff: 00           BRK                 
$1a00: fa           NOP                 
$1a01: f6 70        INC  $70,x          
$1a03: 00           BRK                 
$1a04: fe f8 70     INC  $70f8,x        
$1a07: 00           BRK                 
$1a08: fe f9 f5     INC  $f5f9,x        
$1a0b: 70 00        BVS  l1a0d          
l1a0d:
$1a0d: fb f9 70     ISC  $70f9,y        
$1a10: 00           BRK                 
$1a11: fe f9 70     INC  $70f9,x        
$1a14: 00           BRK                 
$1a15: ff fd f8     ISC  $f8fd,x        
$1a18: 70 03        BVS  l1a1d          
$1a1a: 04 7f        NOP  $7f            
$1a1c: 70 9b        BVS  l19b9          
$1a1e: b3 1a        LAX  ($1a),y        
$1a20: 1a           NOP                 
$1a21: 1a           NOP                 
$1a22: d1 d5        CMP  ($d5),y        
$1a24: f7 97        ISC  $97,x          
$1a26: ec 57 ba     CPX  $ba57          
$1a29: 3b fc ae     RLA  $aefc,y        
$1a2c: 30 47        BMI  l1a75          
$1a2e: 5e 75 28     LSR  $2875,x        
$1a31: 4c 6e 80     JMP  $806e          
$1a34: 99 a9 cb     STA  $cba9,y        
$1a37: 2e 99 ba     ROL  $ba99          
$1a3a: db a7 b9     DCP  $b9a7,y        
$1a3d: cd 25 f3     CMP  $f325          
$1a40: b1 62        LDA  ($62),y        
$1a42: ad b9 c0     LDA  $c0b9          
$1a45: e1 31        SBC  ($31,x)        
$1a47: af 30 1a     LAX  $1a30          
$1a4a: 1a           NOP                 
$1a4b: 1a           NOP                 
$1a4c: 1b 1b 1c     SLO  $1c1b,y        
$1a4f: 1c 1d 1d     NOP  $1d1d,x        
$1a52: 1e 1f 1f     ASL  $1f1f,x        
$1a55: 1f 1f 20     SLO  $201f,x        
$1a58: 20 20 20     JSR  $2020          
$1a5b: 20 20 20     JSR  l2020          
$1a5e: 21 21        AND  ($21,x)        
$1a60: 21 21        AND  ($21,x)        
$1a62: 22           JAM                 
$1a63: 22           JAM                 
$1a64: 22           JAM                 
$1a65: 23 23        RLA  ($23,x)        
$1a67: 24 25        BIT  $25            
$1a69: 25 25        AND  $25            
$1a6b: 25 25        AND  $25            
$1a6d: 26 26        ROL  $26            
$1a6f: 27 a0        RLA  $a0            
$1a71: 0e 0f 0f     ASL  $0f0f          
$1a74: 0f 0f 11     SLO  $110f          
$1a77: 01 05        ORA  (z05,x)        
$1a79: 01 04        ORA  (z04,x)        
$1a7b: ac 02 03     LDY  $0302          
$1a7e: a0 13        LDY  #$13           
$1a80: 14 13        NOP  $13,x          
$1a82: 15 0e        ORA  $0e,x          
$1a84: 11 01        ORA  ($01),y        
$1a86: 05 01        ORA  $01            
$1a88: 04 ac        NOP  $ac            
$1a8a: 02           JAM                 
$1a8b: 1b a0 13     SLO  $13a0,y        
$1a8e: 14 13        NOP  $13,x          
$1a90: 15 1c        ORA  $1c,x          
$1a92: 1c 1c 1c     NOP  $1c1c,x        
$1a95: ac 02 1f     LDY  $1f02          
$1a98: 20 ff 00     JSR  $00ff          
$1a9b: a0 00        LDY  #$00           
$1a9d: 12           JAM                 
$1a9e: 06 06        ASL  $06            
$1aa0: 06 07        ASL  $07            
$1aa2: 25 25        AND  $25            
$1aa4: 16 17        ASL  $17,x          
$1aa6: 06 06        ASL  $06            
$1aa8: 18           CLC                 
$1aa9: 25 25        AND  $25            
$1aab: 06 06        ASL  $06            
$1aad: 06 06        ASL  $06            
$1aaf: 1d 21 ff     ORA  $ff21,x        
$1ab2: 00           BRK                 
$1ab3: a0 0a        LDY  #$0a           
$1ab5: 0a           ASL                 
$1ab6: 0b 0c        ANC  #$0c           
$1ab8: a2 0a        LDX  #$0a           
$1aba: a0 10        LDY  #$10           
$1abc: 08           PHP                 
$1abd: 09 19        ORA  #$19           
$1abf: ac 0d a0     LDY  $a00d          
$1ac2: 0b 10        ANC  #$10           
$1ac4: 08           PHP                 
$1ac5: 09 1a        ORA  #$1a           
$1ac7: ac 0d 23     LDY  $230d          
$1aca: 24 26        BIT  $26            
$1acc: a0 1e        LDY  #$1e           
l1ace:
$1ace: 22           JAM                 
$1acf: ff 00 8f     ISC  $8f00,x        
$1ad2: 00           BRK                 
l1ad3:
$1ad3: 00           BRK                 
$1ad4: 7f c4 a0     RRA  $a0c4,x        
$1ad7: 81 39        STA  ($39,x)        
$1ad9: 39 39 c4     AND  $c439,y        
$1adc: a9 39        LDA  #$39           
$1ade: c4 a0        CPY  $a0            
$1ae0: 83 39        SAX  ($39,x)        
$1ae2: 80 39        NOP  #$39           
$1ae4: 00           BRK                 
$1ae5: 83 39        SAX  ($39,x)        
$1ae7: c5 81        CMP  $81            
$1ae9: 3a           NOP                 
$1aea: c5 a9        CMP  $a9            
$1aec: 3a           NOP                 
$1aed: c4 a0        CPY  $a0            
$1aef: 85 39        STA  $39            
$1af1: c4 a9        CPY  $a9            
$1af3: 81 39        STA  ($39,x)        
$1af5: 39 7f ca     AND  $ca7f,y        
$1af8: a0 81        LDY  #$81           
$1afa: 30 30        BMI  l1b2c          
$1afc: 80 30        NOP  #$30           
$1afe: 00           BRK                 
$1aff: ca           DEX                 
$1b00: a9 81        LDA  #$81           
$1b02: 30 ca        BMI  l1ace          
$1b04: a0 83        LDY  #$83           
$1b06: 30 cb        BMI  l1ad3          
$1b08: 80 2b        NOP  #$2b           
$1b0a: 00           BRK                 
$1b0b: c4 85        CPY  $85            
$1b0d: 2d c4 a9     AND  $a9c4          
$1b10: 81 2d        STA  ($2d,x)        
$1b12: d0 2d        BNE  l1b41          
$1b14: 2d c4 a0     AND  $a0c4          
$1b17: 80 2d        NOP  #$2d           
$1b19: 00           BRK                 
$1b1a: 81 2d        STA  ($2d,x)        
$1b1c: c4 a9        CPY  $a9            
$1b1e: 2d ca a0     AND  $a0ca          
$1b21: 2e 2e 80     ROL  $802e          
$1b24: 2e 00 ca     ROL  $ca00          
$1b27: a9 81        LDA  #$81           
$1b29: 2e ca a0     ROL  $a0ca          
l1b2c:
$1b2c: 83 2e        SAX  ($2e,x)        
$1b2e: cb 80        AXS  #$80           
$1b30: 29 00        AND  #$00           
$1b32: c4 85        CPY  $85            
$1b34: 2b c4        ANC  #$c4           
$1b36: a9 81        LDA  #$81           
$1b38: 2b d0        ANC  #$d0           
$1b3a: 2b 2b        ANC  #$2b           
$1b3c: c4 a0        CPY  $a0            
$1b3e: 80 2b        NOP  #$2b           
$1b40: 00           BRK                 
l1b41:
$1b41: 81 2b        STA  ($2b,x)        
$1b43: c4 a9        CPY  $a9            
$1b45: 2b ca        ANC  #$ca           
$1b47: a0 2d        LDY  #$2d           
$1b49: 2d 80 2d     AND  $2d80          
$1b4c: 00           BRK                 
$1b4d: ca           DEX                 
$1b4e: a9 81        LDA  #$81           
$1b50: 2d ca a0     AND  $a0ca          
$1b53: 83 2d        SAX  ($2d,x)        
$1b55: cb 80        AXS  #$80           
$1b57: 28           PLP                 
$1b58: 00           BRK                 
$1b59: c6 85        DEC  $85            
$1b5b: 29 80        AND  #$80           
$1b5d: 29 00        AND  #$00           
$1b5f: c6 a9        DEC  $a9            
$1b61: 81 29        STA  ($29,x)        
$1b63: c6 a0        DEC  $a0            
$1b65: 80 29        NOP  #$29           
$1b67: 00           BRK                 
$1b68: 81 29        STA  ($29,x)        
$1b6a: c6 a9        DEC  $a9            
$1b6c: 29 29        AND  #$29           
$1b6e: ca           DEX                 
$1b6f: a0 2b        LDY  #$2b           
$1b71: 2b 80        ANC  #$80           
$1b73: 2b 00        ANC  #$00           
$1b75: ca           DEX                 
$1b76: a9 81        LDA  #$81           
$1b78: 2b ca        ANC  #$ca           
$1b7a: a0 83        LDY  #$83           
$1b7c: 2b cb        ANC  #$cb           
$1b7e: 80 26        NOP  #$26           
$1b80: 00           BRK                 
$1b81: cc 85 29     CPY  $2985          
$1b84: cc a9 81     CPY  $81a9          
$1b87: 29 d0        AND  #$d0           
$1b89: 29 29        AND  #$29           
$1b8b: cc a0 80     CPY  $80a0          
$1b8e: 29 00        AND  #$00           
$1b90: 29 00        AND  #$00           
$1b92: cc a9 81     CPY  $81a9          
$1b95: 29 7f        AND  #$7f           
$1b97: cb a9        AXS  #$a9           
$1b99: 81 29        STA  ($29,x)        
$1b9b: cb a0        AXS  #$a0           
$1b9d: 80 29        NOP  #$29           
$1b9f: 00           BRK                 
$1ba0: 83 29        SAX  ($29,x)        
$1ba2: 80 29        NOP  #$29           
$1ba4: 00           BRK                 
$1ba5: cb a9        AXS  #$a9           
$1ba7: 81 29        STA  ($29,x)        
$1ba9: cb a0        AXS  #$a0           
$1bab: 83 29        SAX  ($29,x)        
$1bad: 80 29        NOP  #$29           
$1baf: 00           BRK                 
$1bb0: cb a9        AXS  #$a9           
$1bb2: 81 29        STA  ($29,x)        
$1bb4: c8           INY                 
$1bb5: a0 80        LDY  #$80           
l1bb7:
$1bb7: 2b 00        ANC  #$00           
$1bb9: cd 85 2d     CMP  $2d85          
$1bbc: cd a9 81     CMP  $81a9          
$1bbf: 2d 2d cb     AND  $cb2d          
$1bc2: a0 80        LDY  #$80           
$1bc4: 2b 00        ANC  #$00           
$1bc6: 2b 00        ANC  #$00           
$1bc8: 83 2b        SAX  ($2b,x)        
$1bca: 80 2b        NOP  #$2b           
$1bcc: 00           BRK                 
$1bcd: cb a9        AXS  #$a9           
$1bcf: 2b 00        ANC  #$00           
$1bd1: cb a0        AXS  #$a0           
$1bd3: 2b 00        ANC  #$00           
$1bd5: 83 2b        SAX  ($2b,x)        
$1bd7: c8           INY                 
$1bd8: 81 2d        STA  ($2d,x)        
$1bda: c8           INY                 
$1bdb: a9 2d        LDA  #$2d           
$1bdd: ce a0 2e     DEC  $2ea0          
$1be0: ce a9 2e     DEC  $2ea9          
$1be3: cf a0 83     DCP  $83a0          
$1be6: 30 cf        BMI  l1bb7          
$1be8: a9 81        LDA  #$81           
$1bea: 30 7f        BMI  l1c6b          
$1bec: c6 a9        DEC  $a9            
$1bee: 81 35        STA  ($35,x)        
$1bf0: c6 a0        DEC  $a0            
$1bf2: 80 35        NOP  #$35           
$1bf4: 00           BRK                 
$1bf5: 35 00        AND  $00,x          
$1bf7: 83 35        SAX  ($35,x)        
$1bf9: 80 35        NOP  #$35           
$1bfb: 00           BRK                 
$1bfc: c6 a9        DEC  $a9            
$1bfe: 81 35        STA  ($35,x)        
$1c00: c6 a0        DEC  $a0            
$1c02: 80 35        NOP  #$35           
$1c04: 00           BRK                 
$1c05: c7 83        DCP  $83            
$1c07: 37 81        RLA  $81,x          
$1c09: 37 c7        RLA  $c7,x          
$1c0b: a9 37        LDA  #$37           
$1c0d: c6 a0        DEC  $a0            
$1c0f: 86 35        STX  $35            
$1c11: 80 00        NOP  #$00           
$1c13: c9 34        CMP  #$34           
$1c15: 00           BRK                 
$1c16: 34 00        NOP  $00,x          
$1c18: 83 34        SAX  ($34,x)        
$1c1a: 81 34        STA  ($34,x)        
$1c1c: c9 a9        CMP  #$a9           
$1c1e: 34 c9        NOP  $c9,x          
$1c20: a0 80        LDY  #$80           
$1c22: 34 00        NOP  $00,x          
$1c24: ca           DEX                 
$1c25: 83 35        SAX  ($35,x)        
$1c27: 81 35        STA  ($35,x)        
$1c29: ca           DEX                 
$1c2a: a9 35        LDA  #$35           
$1c2c: c9 a0        CMP  #$a0           
$1c2e: 83 34        SAX  ($34,x)        
$1c30: 80 34        NOP  #$34           
$1c32: 00           BRK                 
$1c33: c6 81        DEC  $81            
$1c35: 30 c6        BMI  l1bfd          
$1c37: a9 30        LDA  #$30           
$1c39: c6 a0        DEC  $a0            
$1c3b: 83 30        SAX  ($30,x)        
$1c3d: c4 80        CPY  $80            
$1c3f: 32           JAM                 
$1c40: 00           BRK                 
$1c41: 85 32        STA  $32            
$1c43: c4 a9        CPY  $a9            
$1c45: 81 32        STA  ($32,x)        
$1c47: d0 32        BNE  l1c7b          
$1c49: 32           JAM                 
$1c4a: d0 32        BNE  l1c7e          
$1c4c: d0 32        BNE  l1c80          
$1c4e: 32           JAM                 
$1c4f: d0 32        BNE  l1c83          
$1c51: d0 32        BNE  l1c85          
$1c53: 32           JAM                 
$1c54: d0 32        BNE  l1c88          
$1c56: 7f c6 a0     RRA  $a0c6,x        
$1c59: 81 35        STA  ($35,x)        
$1c5b: 35 35        AND  $35,x          
$1c5d: c6 a9        DEC  $a9            
$1c5f: 35 c6        AND  $c6,x          
$1c61: a0 83        LDY  #$83           
$1c63: 35 80        AND  $80,x          
$1c65: 35 00        AND  $00,x          
$1c67: c7 83        DCP  $83            
$1c69: 37 80        RLA  $80,x          
l1c6b:
$1c6b: 37 00        RLA  $00,x          
$1c6d: c7 a9        DCP  $a9            
$1c6f: 37 00        RLA  $00,x          
$1c71: c6 a0        DEC  $a0            
$1c73: 86 35        STX  $35            
$1c75: 80 00        NOP  #$00           
$1c77: c8           INY                 
$1c78: 32           JAM                 
$1c79: 00           BRK                 
$1c7a: c9 81        CMP  #$81           
$1c7c: 34 34        NOP  $34,x          
l1c7e:
$1c7e: 34 c9        NOP  $c9,x          
l1c80:
$1c80: a9 80        LDA  #$80           
$1c82: 34 00        NOP  $00,x          
$1c84: c9 a0        CMP  #$a0           
$1c86: 83 34        SAX  ($34,x)        
l1c88:
$1c88: 80 34        NOP  #$34           
$1c8a: 00           BRK                 
$1c8b: ca           DEX                 
$1c8c: 83 35        SAX  ($35,x)        
$1c8e: 81 35        STA  ($35,x)        
$1c90: ca           DEX                 
$1c91: a9 80        LDA  #$80           
$1c93: 35 00        AND  $00,x          
$1c95: c9 a0        CMP  #$a0           
$1c97: 83 34        SAX  ($34,x)        
$1c99: 80 34        NOP  #$34           
$1c9b: 00           BRK                 
$1c9c: c6 83        DEC  $83            
$1c9e: 30 30        BMI  l1cd0          
$1ca0: c4 80        CPY  $80            
$1ca2: 32           JAM                 
$1ca3: 00           BRK                 
$1ca4: 85 32        STA  $32            
$1ca6: c4 a9        CPY  $a9            
$1ca8: 81 32        STA  ($32,x)        
$1caa: d0 32        BNE  l1cde          
$1cac: 32           JAM                 
$1cad: d0 32        BNE  l1ce1          
$1caf: d0 32        BNE  l1ce3          
$1cb1: 32           JAM                 
$1cb2: d0 32        BNE  l1ce6          
$1cb4: d0 32        BNE  l1ce8          
$1cb6: 32           JAM                 
$1cb7: d0 32        BNE  l1ceb          
$1cb9: 7f a1 83     RRA  $83a1,x        
$1cbc: 11 a6        ORA  ($a6),y        
$1cbe: 81 3c        STA  ($3c,x)        
$1cc0: a7 45        LAX  $45            
$1cc2: a2 18        LDX  #$18           
$1cc4: a7 48        LAX  $48            
$1cc6: a4 80        LDY  $80            
$1cc8: 11 00        ORA  ($00),y        
$1cca: a1 83        LDA  ($83,x)        
$1ccc: 11 81        ORA  ($81),y        
$1cce: 00           BRK                 
$1ccf: a6 3c        LDX  $3c            
$1cd1: a7 43        LAX  $43            
$1cd3: a2 18        LDX  #$18           
$1cd5: a7 48        LAX  $48            
$1cd7: a4 83        LDY  $83            
$1cd9: 15 a1        ORA  $a1,x          
$1cdb: 1a           NOP                 
$1cdc: a6 81        LDX  $81            
l1cde:
$1cde: 39 a7 41     AND  $41a7,y        
l1ce1:
$1ce1: a2 18        LDX  #$18           
l1ce3:
$1ce3: a7 48        LAX  $48            
$1ce5: a4 80        LDY  $80            
$1ce7: 1a           NOP                 
l1ce8:
$1ce8: 00           BRK                 
$1ce9: a1 83        LDA  ($83,x)        
l1ceb:
$1ceb: 1a           NOP                 
$1cec: 81 00        STA  ($00,x)        
$1cee: a6 39        LDX  $39            
$1cf0: a7 3e        LAX  $3e            
$1cf2: a2 18        LDX  #$18           
$1cf4: a7 48        LAX  $48            
$1cf6: a4 1f        LDY  $1f            
$1cf8: 90 13        BCC  l1d0d          
$1cfa: 00           BRK                 
$1cfb: a1 83        LDA  ($83,x)        
$1cfd: 15 a6        ORA  $a6,x          
$1cff: 81 3c        STA  ($3c,x)        
$1d01: a7 40        LAX  $40            
$1d03: a2 18        LDX  #$18           
$1d05: a7 48        LAX  $48            
$1d07: a4 80        LDY  $80            
$1d09: 15 00        ORA  $00,x          
$1d0b: a1 83        LDA  ($83,x)        
l1d0d:
$1d0d: 15 81        ORA  $81,x          
$1d0f: 00           BRK                 
$1d10: a6 34        LDX  $34            
$1d12: a7 3c        LAX  $3c            
$1d14: a2 18        LDX  #$18           
$1d16: a7 45        LAX  $45            
$1d18: a3 24        LAX  ($24,x)        
$1d1a: a1 15        LDA  ($15,x)        
$1d1c: 83 16        SAX  ($16,x)        
$1d1e: a6 81        LDX  $81            
$1d20: 3a           NOP                 
$1d21: a7 41        LAX  $41            
$1d23: a2 18        LDX  #$18           
$1d25: a7 4a        LAX  $4a            
$1d27: a4 16        LDY  $16            
$1d29: a1 83        LDA  ($83,x)        
$1d2b: 0a           ASL                 
$1d2c: 81 00        STA  ($00,x)        
$1d2e: a6 35        LDX  $35            
$1d30: a7 3e        LAX  $3e            
$1d32: a2 18        LDX  #$18           
$1d34: a7 46        LAX  $46            
$1d36: a4 18        LDY  $18            
$1d38: 91 1a        STA  ($1a),y        
$1d3a: 7f a1 83     RRA  $83a1,x        
$1d3d: 18           CLC                 
$1d3e: a6 81        LDX  $81            
$1d40: 43 a7        SRE  ($a7,x)        
$1d42: 48           PHA                 
$1d43: a2 83        LDX  #$83           
$1d45: 18           CLC                 
$1d46: a4 80        LDY  $80            
$1d48: 18           CLC                 
$1d49: 00           BRK                 
$1d4a: a1 83        LDA  ($83,x)        
$1d4c: 11 80        ORA  ($80),y        
$1d4e: 1d 00 a6     ORA  $a600,x        
$1d51: 81 43        STA  ($43,x)        
$1d53: a7 45        LAX  $45            
$1d55: a2 18        LDX  #$18           
$1d57: a1 15        LDA  ($15,x)        
$1d59: a4 18        LDY  $18            
$1d5b: 91 17        STA  ($17),y        
$1d5d: a1 83        LDA  ($83,x)        
$1d5f: 16 a6        ASL  $a6,x          
$1d61: 81 41        STA  ($41,x)        
$1d63: a7 46        LAX  $46            
$1d65: a2 83        LDX  #$83           
$1d67: 18           CLC                 
$1d68: a4 80        LDY  $80            
$1d6a: 16 00        ASL  $00,x          
$1d6c: a1 81        LDA  ($81,x)        
$1d6e: 1b 91 16     SLO  $1691,y        
$1d71: 0f a7 41     SLO  $41a7          
$1d74: a6 43        LDX  $43            
$1d76: a2 18        LDX  #$18           
$1d78: a1 1f        LDA  ($1f,x)        
$1d7a: a4 1b        LDY  $1b            
$1d7c: 91 1a        STA  ($1a),y        
$1d7e: a1 83        LDA  ($83,x)        
$1d80: 19 a6 81     ORA  $81a6,y        
$1d83: 40           RTI                 
$1d84: a1 15        LDA  ($15,x)        
$1d86: a2 18        LDX  #$18           
$1d88: a4 10        LDY  $10            
$1d8a: 95 0e        STA  $0e,x          
$1d8c: 81 1a        STA  ($1a,x)        
$1d8e: a6 40        LDX  $40            
$1d90: a7 41        LAX  $41            
$1d92: a2 18        LDX  #$18           
$1d94: a1 15        LDA  ($15,x)        
$1d96: a3 24        LAX  ($24,x)        
$1d98: a1 80        LDA  ($80,x)        
$1d9a: 15 00        ORA  $00,x          
$1d9c: 83 17        SAX  ($17,x)        
$1d9e: a6 81        LDX  $81            
$1da0: 3e a7 43     ROL  $43a7,x        
$1da3: a2 83        LDX  #$83           
$1da5: 18           CLC                 
$1da6: a4 80        LDY  $80            
$1da8: 11 00        ORA  ($00),y        
$1daa: a1 85        LDA  ($85,x)        
$1dac: 13 a6        SLO  ($a6),y        
$1dae: 81 3b        STA  ($3b,x)        
$1db0: a7 41        LAX  $41            
$1db2: a2 18        LDX  #$18           
$1db4: a1 80        LDA  ($80,x)        
$1db6: 11 00        ORA  ($00),y        
$1db8: a4 81        LDY  $81            
$1dba: 13 91        SLO  ($91),y        
$1dbc: 15 a1        ORA  $a1,x          
$1dbe: 83 16        SAX  ($16,x)        
$1dc0: a6 81        LDX  $81            
$1dc2: 3a           NOP                 
$1dc3: a7 3e        LAX  $3e            
$1dc5: a2 18        LDX  #$18           
$1dc7: a7 45        LAX  $45            
$1dc9: a4 80        LDY  $80            
$1dcb: 11 00        ORA  ($00),y        
$1dcd: a1 85        LDA  ($85,x)        
$1dcf: 0a           ASL                 
$1dd0: a7 81        LAX  $81            
$1dd2: 3a           NOP                 
$1dd3: a6 3e        LDX  $3e            
$1dd5: a2 18        LDX  #$18           
$1dd7: a6 43        LDX  $43            
$1dd9: a3 83        LAX  ($83,x)        
$1ddb: 24 a1        BIT  $a1            
$1ddd: 18           CLC                 
$1dde: a6 81        LDX  $81            
$1de0: 3c a7 40     NOP  $40a7,x        
$1de3: a2 18        LDX  #$18           
$1de5: a7 45        LAX  $45            
l1de7:
$1de7: a4 80        LDY  $80            
$1de9: 13 00        SLO  ($00),y        
$1deb: a1 85        LDA  ($85,x)        
$1ded: 0c a6 81     NOP  $81a6          
$1df0: 37 a7        RLA  $a7,x          
$1df2: 3c b3 18     NOP  $18b3,x        
$1df5: a7 83        LAX  $83            
$1df7: 43 b3        SRE  ($b3,x)        
$1df9: 81 18        STA  ($18,x)        
$1dfb: 7f 87 00     RRA  $0087,x        
$1dfe: a8           TAY                 
$1dff: 80 37        NOP  #$37           
$1e01: c0 92        CPY  #$92           
$1e03: 39 c3 81     AND  $81c3,y        
$1e06: 7e 00 83     ROR  $8300,x        
$1e09: 37 00        RLA  $00,x          
$1e0b: 35 c3        AND  $c3,x          
$1e0d: 81 7e        STA  ($7e,x)        
$1e0f: 00           BRK                 
$1e10: 83 34        SAX  ($34,x)        
$1e12: c0 93        CPY  #$93           
$1e14: 35 00        AND  $00,x          
$1e16: c1 37        CMP  ($37,x)        
$1e18: 00           BRK                 
$1e19: 80 32        NOP  #$32           
$1e1b: c0 94        CPY  #$94           
$1e1d: 34 81        NOP  $81,x          
$1e1f: 00           BRK                 
$1e20: c1 83        CMP  ($83,x)        
$1e22: 30 c3        BMI  l1de7          
$1e24: 7e 89 00     ROR  $0089,x        
$1e27: 80 2d        NOP  #$2d           
$1e29: 00           BRK                 
$1e2a: 83 30        SAX  ($30,x)        
$1e2c: c0 93        CPY  #$93           
$1e2e: 32           JAM                 
$1e2f: c1 34        CMP  ($34,x)        
$1e31: c0 91        CPY  #$91           
$1e33: 35 c3        AND  $c3,x          
$1e35: 85 7e        STA  $7e            
$1e37: c1 81        CMP  ($81,x)        
$1e39: 32           JAM                 
$1e3a: 83 00        SAX  ($00,x)        
$1e3c: aa           TAX                 
$1e3d: 81 3c        STA  ($3c,x)        
$1e3f: 90 3e        BCC  l1e7f          
$1e41: 00           BRK                 
$1e42: 43 00        SRE  ($00,x)        
$1e44: d1 35        CMP  ($35),y        
$1e46: 00           BRK                 
$1e47: 81 41        STA  ($41,x)        
$1e49: d1 80        CMP  ($80),y        
$1e4b: 3a           NOP                 
$1e4c: 00           BRK                 
$1e4d: 3e 00 81     ROL  $8100,x        
$1e50: 3c 91 3e     NOP  $3e91,x        
$1e53: 91 3c        STA  ($3c),y        
$1e55: d1 80        CMP  ($80),y        
$1e57: 35 88        AND  $88,x          
$1e59: 00           BRK                 
$1e5a: a8           TAY                 
$1e5b: 80 37        NOP  #$37           
$1e5d: c0 92        CPY  #$92           
$1e5f: 39 c3 81     AND  $81c3,y        
$1e62: 7e 00 83     ROR  $8300,x        
$1e65: 3c 00 35     NOP  $3500,x        
$1e68: c3 81        DCP  ($81,x)        
$1e6a: 7e 00 83     ROR  $8300,x        
$1e6d: 34 c0        NOP  $c0,x          
$1e6f: 93 35        AHX  ($35),y        
$1e71: 00           BRK                 
$1e72: c1 37        CMP  ($37,x)        
$1e74: 00           BRK                 
$1e75: 39 00 80     AND  $8000,y        
$1e78: 36 c0        ROL  $c0,x          
$1e7a: 94 37        STY  $37,x          
$1e7c: c3 81        DCP  ($81,x)        
$1e7e: 7e 89 00     ROR  $0089,x        
$1e81: 80 30        NOP  #$30           
$1e83: 00           BRK                 
$1e84: 35 c0        AND  $c0,x          
$1e86: 92           JAM                 
$1e87: 37 93        RLA  $93,x          
$1e89: 39 c1 34     AND  $34c1,y        
$1e8c: 35 c3        AND  $c3,x          
$1e8e: 7e 81 3e     ROR  $3e81,x        
$1e91: 83 00        SAX  ($00,x)        
$1e93: aa           TAX                 
$1e94: 81 3c        STA  ($3c,x)        
$1e96: 90 3e        BCC  l1ed6          
$1e98: 00           BRK                 
$1e99: 45 00        EOR  $00            
$1e9b: d1 3a        CMP  ($3a),y        
$1e9d: 00           BRK                 
$1e9e: 81 41        STA  ($41,x)        
$1ea0: 90 3e        BCC  l1ee0          
$1ea2: 00           BRK                 
$1ea3: d1 35        CMP  ($35),y        
$1ea5: 00           BRK                 
$1ea6: a8           TAY                 
$1ea7: 3c c0 92     NOP  $92c0,x        
$1eaa: 3e 93 3c     ROL  $3c93,x        
$1ead: 7f c3 84     RRA  $84c3,x        
$1eb0: 7e 82 00     ROR  $0082,x        
$1eb3: a8           TAY                 
$1eb4: 80 39        NOP  #$39           
$1eb6: c0 92        CPY  #$92           
$1eb8: 3a           NOP                 
$1eb9: 93 39        AHX  ($39),y        
$1ebb: c3 7e        DCP  ($7e,x)        
$1ebd: 00           BRK                 
$1ebe: 80 35        NOP  #$35           
$1ec0: c0 92        CPY  #$92           
$1ec2: 37 93        RLA  $93,x          
$1ec4: 35 c3        AND  $c3,x          
$1ec6: 7e 00 80     ROR  $8000,x        
$1ec9: 30 c0        BMI  l1e8b          
$1ecb: 92           JAM                 
$1ecc: 32           JAM                 
$1ecd: 93 2e        AHX  ($2e),y        
$1ecf: c3 84        DCP  ($84,x)        
$1ed1: 7e 88 00     ROR  $0088,x        
$1ed4: 80 2d        NOP  #$2d           
l1ed6:
$1ed6: 00           BRK                 
$1ed7: 83 31        SAX  ($31,x)        
$1ed9: c0 91        CPY  #$91           
$1edb: 32           JAM                 
$1edc: c1 80        CMP  ($80,x)        
$1ede: 34 82        NOP  $82,x          
l1ee0:
$1ee0: 00           BRK                 
$1ee1: 81 37        STA  ($37,x)        
$1ee3: 83 35        SAX  ($35,x)        
$1ee5: c3 7e        DCP  ($7e,x)        
$1ee7: 81 32        STA  ($32,x)        
$1ee9: 80 2d        NOP  #$2d           
$1eeb: 00           BRK                 
$1eec: 37 c0        RLA  $c0,x          
$1eee: 92           JAM                 
$1eef: 39 97 37     AND  $3797,y        
$1ef2: c3 83        DCP  ($83,x)        
$1ef4: 7e 85 00     ROR  $0085,x        
$1ef7: 80 32        NOP  #$32           
$1ef9: 00           BRK                 
$1efa: 34 c0        NOP  $c0,x          
$1efc: 92           JAM                 
$1efd: 35 91        AND  $91,x          
$1eff: 34 c1        NOP  $c1,x          
$1f01: 32           JAM                 
$1f02: 00           BRK                 
$1f03: 30 83        BMI  l1e88          
$1f05: 32           JAM                 
$1f06: c3 87        DCP  ($87,x)        
$1f08: 7e 83 00     ROR  $0083,x        
$1f0b: 80 32        NOP  #$32           
$1f0d: 00           BRK                 
$1f0e: 34 00        NOP  $00,x          
$1f10: 34 c0        NOP  $c0,x          
$1f12: 92           JAM                 
$1f13: 35 91        AND  $91,x          
$1f15: 34 c1        NOP  $c1,x          
$1f17: 80 32        NOP  #$32           
$1f19: 82 00        NOP  #$00           
$1f1b: 81 30        STA  ($30,x)        
$1f1d: 80 32        NOP  #$32           
$1f1f: c0 92        CPY  #$92           
$1f21: 34 c3        NOP  $c3,x          
$1f23: 83 7e        SAX  ($7e,x)        
$1f25: 91 32        STA  ($32),y        
$1f27: 90 33        BCC  l1f5c          
$1f29: 90 32        BCC  l1f5d          
$1f2b: 93 30        AHX  ($30),y        
$1f2d: c3 7e        DCP  ($7e,x)        
$1f2f: 7f ab 81     RRA  $81ab,x        
$1f32: 29 c2        AND  #$c2           
$1f34: 7e 29 83     ROR  $8329,x        
$1f37: 35 29        AND  $29,x          
$1f39: 81 29        STA  ($29,x)        
$1f3b: c2 7e        NOP  #$7e           
$1f3d: 29 29        AND  #$29           
$1f3f: 35 d2        AND  $d2,x          
$1f41: 7e 83 29     ROR  $2983,x        
$1f44: 81 27        STA  ($27,x)        
$1f46: 7f ab 81     RRA  $81ab,x        
$1f49: 29 c2        AND  #$c2           
$1f4b: 7e 29 83     ROR  $8329,x        
$1f4e: 35 29        AND  $29,x          
$1f50: 81 29        STA  ($29,x)        
$1f52: c2 7e        NOP  #$7e           
$1f54: 29 29        AND  #$29           
$1f56: 35 d2        AND  $d2,x          
$1f58: 7e 83 29     ROR  $2983,x        
$1f5b: 81 28        STA  ($28,x)        
l1f5d:
$1f5d: 7f ab 81     RRA  $81ab,x        
$1f60: 29 c2        AND  #$c2           
$1f62: 7e 29 83     ROR  $8329,x        
$1f65: 35 29        AND  $29,x          
$1f67: 81 29        STA  ($29,x)        
$1f69: c2 7e        NOP  #$7e           
$1f6b: 29 29        AND  #$29           
$1f6d: 35 d2        AND  $d2,x          
$1f6f: 7e 83 29     ROR  $2983,x        
$1f72: 81 2d        STA  ($2d,x)        
$1f74: 7f b0 80     RRA  $80b0,x        
$1f77: 37 d6        RLA  $d6,x          
$1f79: 92           JAM                 
$1f7a: 39 c3 8f     AND  $8fc3,y        
$1f7d: 00           BRK                 
$1f7e: 80 30        NOP  #$30           
$1f80: 00           BRK                 
$1f81: 30 00        BMI  l1f83          
l1f83:
$1f83: 81 30        STA  ($30,x)        
$1f85: 91 32        STA  ($32),y        
$1f87: 91 35        STA  ($35),y        
$1f89: 80 37        NOP  #$37           
$1f8b: 00           BRK                 
$1f8c: 37 d6        RLA  $d6,x          
$1f8e: 92           JAM                 
$1f8f: 39 c1 81     AND  $81c1,y        
$1f92: 3c c3 8d     NOP  $8dc3,x        
$1f95: 00           BRK                 
$1f96: 80 30        NOP  #$30           
$1f98: 00           BRK                 
$1f99: 30 00        BMI  l1f9b          
l1f9b:
$1f9b: 81 30        STA  ($30,x)        
$1f9d: 91 32        STA  ($32),y        
$1f9f: 90 35        BCC  l1fd6          
$1fa1: 00           BRK                 
$1fa2: 37 00        RLA  $00,x          
$1fa4: 32           JAM                 
$1fa5: d6 92        DEC  $92,x          
$1fa7: 34 c1        NOP  $c1,x          
$1fa9: 80 35        NOP  #$35           
$1fab: 00           BRK                 
$1fac: 32           JAM                 
$1fad: d6 93        DEC  $93,x          
$1faf: 34 c3        NOP  $c3,x          
$1fb1: 82 00        NOP  #$00           
$1fb3: c1 80        CMP  ($80,x)        
$1fb5: 30 00        BMI  l1fb7          
l1fb7:
$1fb7: 32           JAM                 
$1fb8: d6 92        DEC  $92,x          
$1fba: 34 80        NOP  $80,x          
$1fbc: 35 00        AND  $00,x          
$1fbe: 32           JAM                 
$1fbf: d6 94        DEC  $94,x          
$1fc1: 34 91        NOP  $91,x          
$1fc3: 35 c1        AND  $c1,x          
$1fc5: 32           JAM                 
$1fc6: 00           BRK                 
$1fc7: c3 8f        DCP  ($8f,x)        
$1fc9: 00           BRK                 
$1fca: 81 00        STA  ($00,x)        
$1fcc: 80 30        NOP  #$30           
$1fce: 00           BRK                 
$1fcf: 30 00        BMI  l1fd1          
l1fd1:
$1fd1: 81 30        STA  ($30,x)        
$1fd3: 91 32        STA  ($32),y        
$1fd5: 91 35        STA  ($35),y        
$1fd7: 80 37        NOP  #$37           
$1fd9: 00           BRK                 
$1fda: 37 d6        RLA  $d6,x          
$1fdc: 92           JAM                 
$1fdd: 39 c3 8f     AND  $8fc3,y        
$1fe0: 00           BRK                 
$1fe1: c1 80        CMP  ($80,x)        
$1fe3: 39 00 39     AND  $3900,y        
$1fe6: 00           BRK                 
$1fe7: 81 39        STA  ($39,x)        
$1fe9: 91 3a        STA  ($3a),y        
$1feb: 91 3c        STA  ($3c),y        
$1fed: 80 39        NOP  #$39           
$1fef: 00           BRK                 
$1ff0: 35 d6        AND  $d6,x          
$1ff2: 92           JAM                 
$1ff3: 37 c1        RLA  $c1,x          
$1ff5: 81 35        STA  ($35,x)        
$1ff7: c3 89        DCP  ($89,x)        
$1ff9: 00           BRK                 
$1ffa: 80 3e        NOP  #$3e           
$1ffc: d6 92        DEC  $92,x          
$1ffe: 40           RTI                 
$1fff: 91 3e        STA  ($3e),y        
$2001: 00           BRK                 
$2002: 3c d6 91     NOP  $91d6,x        
$2005: 3e 91 3c     ROL  $3c91,x        
$2008: c3 86        DCP  ($86,x)        
$200a: 7e 88 00     ROR  $0088,x        
$200d: 80 30        NOP  #$30           
$200f: 00           BRK                 
$2010: 81 39        STA  ($39,x)        
$2012: c3 7e        DCP  ($7e,x)        
$2014: 91 3a        STA  ($3a),y        
$2016: 00           BRK                 
$2017: 3c 80 37     NOP  $3780,x        
$201a: d6 90        DEC  $90,x          
$201c: 39 c1 93     AND  $93c1,y        
$201f: 35 c3        AND  $c3,x          
$2021: 84 7e        STY  $7e            
$2023: 8f 00 8a     SAX  $8a00          
$2026: 00           BRK                 
$2027: 7f d3 ac     RRA  $acd3,x        
$202a: 80 41        NOP  #$41           
$202c: 82 00        NOP  #$00           
$202e: 80 7e        NOP  #$7e           
$2030: 00           BRK                 
$2031: 7e 82 00     ROR  $0082,x        
$2034: 80 7e        NOP  #$7e           
$2036: 82 00        NOP  #$00           
$2038: 80 7e        NOP  #$7e           
$203a: 82 00        NOP  #$00           
$203c: 80 7e        NOP  #$7e           
$203e: 00           BRK                 
$203f: 7e 00 7e     ROR  $7e00,x        
$2042: 82 00        NOP  #$00           
$2044: 80 7e        NOP  #$7e           
$2046: 82 00        NOP  #$00           
$2048: 80 7e        NOP  #$7e           
$204a: 00           BRK                 
$204b: 7f 80 7e     RRA  $7e80,x        
$204e: 82 00        NOP  #$00           
$2050: 80 7e        NOP  #$7e           
$2052: 00           BRK                 
$2053: 7e 82 00     ROR  $0082,x        
$2056: 80 7e        NOP  #$7e           
$2058: 82 00        NOP  #$00           
$205a: 80 7e        NOP  #$7e           
$205c: 82 00        NOP  #$00           
$205e: 80 7e        NOP  #$7e           
$2060: 00           BRK                 
$2061: 7e 00 7e     ROR  $7e00,x        
$2064: 82 00        NOP  #$00           
$2066: 80 7e        NOP  #$7e           
$2068: 82 00        NOP  #$00           
$206a: 80 7e        NOP  #$7e           
$206c: 00           BRK                 
$206d: 7f ab 81     RRA  $81ab,x        
$2070: 29 c2        AND  #$c2           
$2072: 7e 29 83     ROR  $8329,x        
$2075: 35 29        AND  $29,x          
$2077: 81 29        STA  ($29,x)        
$2079: c2 87        NOP  #$87           
$207b: 7e cb ad     ROR  $adcb,x        
$207e: 3a           NOP                 
$207f: 7f 80 7e     RRA  $7e80,x        
$2082: 82 00        NOP  #$00           
$2084: 80 7e        NOP  #$7e           
$2086: 00           BRK                 
$2087: 7e 82 00     ROR  $0082,x        
$208a: 80 7e        NOP  #$7e           
$208c: 82 00        NOP  #$00           
$208e: 80 7e        NOP  #$7e           
$2090: 88           DEY                 
$2091: 00           BRK                 
$2092: d4 ae        NOP  $ae,x          
$2094: 86 37        STX  $37            
$2096: 80 00        NOP  #$00           
$2098: 7f 8f 00     RRA  $008f,x        
$209b: 87 00        SAX  $00            
$209d: d5 af        CMP  $af,x          
$209f: 80 3c        NOP  #$3c           
$20a1: 3c 3c 3c     NOP  $3c3c,x        
$20a4: 3c 3c 3c     NOP  $3c3c,x        
$20a7: 3c 7f c4     NOP  $c47f,x        
$20aa: b1 81        LDA  ($81),y        
$20ac: 39 39 39     AND  $3939,y        
$20af: c4 a9        CPY  $a9            
$20b1: 39 c4 b1     AND  $b1c4,y        
$20b4: 83 39        SAX  ($39,x)        
$20b6: 80 39        NOP  #$39           
$20b8: 00           BRK                 
$20b9: 83 39        SAX  ($39,x)        
$20bb: c5 81        CMP  $81            
$20bd: 3a           NOP                 
$20be: c5 a9        CMP  $a9            
$20c0: 3a           NOP                 
$20c1: c4 b1        CPY  $b1            
$20c3: 85 39        STA  $39            
$20c5: c4 a9        CPY  $a9            
$20c7: 81 39        STA  ($39,x)        
$20c9: 39 7f c6     AND  $c67f,y        
$20cc: b1 81        LDA  ($81),y        
$20ce: 35 35        AND  $35,x          
$20d0: 35 c6        AND  $c6,x          
$20d2: a9 35        LDA  #$35           
$20d4: c6 b1        DEC  $b1            
$20d6: 83 35        SAX  ($35,x)        
$20d8: 80 35        NOP  #$35           
$20da: 00           BRK                 
$20db: c7 83        DCP  $83            
$20dd: 37 80        RLA  $80,x          
$20df: 37 00        RLA  $00,x          
$20e1: c7 a9        DCP  $a9            
$20e3: 37 00        RLA  $00,x          
$20e5: c6 b1        DEC  $b1            
$20e7: 86 35        STX  $35            
$20e9: 80 00        NOP  #$00           
$20eb: c8           INY                 
$20ec: 32           JAM                 
$20ed: 00           BRK                 
$20ee: c9 81        CMP  #$81           
$20f0: 34 34        NOP  $34,x          
$20f2: 34 c9        NOP  $c9,x          
$20f4: a9 80        LDA  #$80           
$20f6: 34 00        NOP  $00,x          
$20f8: c9 b1        CMP  #$b1           
$20fa: 83 34        SAX  ($34,x)        
$20fc: 80 34        NOP  #$34           
$20fe: 00           BRK                 
$20ff: ca           DEX                 
$2100: 83 35        SAX  ($35,x)        
$2102: 81 35        STA  ($35,x)        
$2104: ca           DEX                 
$2105: a9 80        LDA  #$80           
$2107: 35 00        AND  $00,x          
$2109: c9 b1        CMP  #$b1           
$210b: 83 34        SAX  ($34,x)        
$210d: 80 34        NOP  #$34           
$210f: 00           BRK                 
$2110: c6 83        DEC  $83            
$2112: 30 30        BMI  l2144          
$2114: c4 80        CPY  $80            
$2116: 32           JAM                 
$2117: 00           BRK                 
$2118: 85 32        STA  $32            
$211a: c4 a9        CPY  $a9            
$211c: 81 32        STA  ($32,x)        
$211e: d0 32        BNE  l2152          
$2120: 32           JAM                 
$2121: d0 32        BNE  l2155          
$2123: d0 32        BNE  l2157          
$2125: 32           JAM                 
$2126: d0 32        BNE  l215a          
$2128: d0 32        BNE  l215c          
$212a: 32           JAM                 
$212b: d0 32        BNE  l215f          
$212d: 7f c6 a9     RRA  $a9c6,x        
$2130: 81 35        STA  ($35,x)        
$2132: c6 b1        DEC  $b1            
$2134: 80 35        NOP  #$35           
$2136: 00           BRK                 
$2137: 35 00        AND  $00,x          
$2139: 83 35        SAX  ($35,x)        
$213b: 80 35        NOP  #$35           
$213d: 00           BRK                 
$213e: c6 a9        DEC  $a9            
$2140: 81 35        STA  ($35,x)        
$2142: c6 b1        DEC  $b1            
l2144:
$2144: 80 35        NOP  #$35           
$2146: 00           BRK                 
$2147: c7 83        DCP  $83            
$2149: 37 81        RLA  $81,x          
$214b: 37 c7        RLA  $c7,x          
$214d: a9 37        LDA  #$37           
$214f: c6 b1        DEC  $b1            
$2151: 86 35        STX  $35            
$2153: 80 00        NOP  #$00           
l2155:
$2155: c9 34        CMP  #$34           
l2157:
$2157: 00           BRK                 
$2158: 34 00        NOP  $00,x          
l215a:
$215a: 83 34        SAX  ($34,x)        
l215c:
$215c: 81 34        STA  ($34,x)        
$215e: c9 a9        CMP  #$a9           
$2160: 34 c9        NOP  $c9,x          
$2162: b1 80        LDA  ($80),y        
$2164: 34 00        NOP  $00,x          
$2166: ca           DEX                 
$2167: 83 35        SAX  ($35,x)        
$2169: 81 35        STA  ($35,x)        
$216b: ca           DEX                 
$216c: a9 35        LDA  #$35           
$216e: c9 b1        CMP  #$b1           
$2170: 83 34        SAX  ($34,x)        
$2172: 80 34        NOP  #$34           
$2174: 00           BRK                 
$2175: c6 81        DEC  $81            
$2177: 30 c6        BMI  l213f          
$2179: a9 30        LDA  #$30           
$217b: c6 b1        DEC  $b1            
$217d: 83 30        SAX  ($30,x)        
$217f: c4 80        CPY  $80            
$2181: 32           JAM                 
$2182: 00           BRK                 
$2183: 85 32        STA  $32            
$2185: c4 a9        CPY  $a9            
$2187: 81 32        STA  ($32,x)        
$2189: d0 32        BNE  l21bd          
$218b: 32           JAM                 
$218c: d0 32        BNE  l21c0          
$218e: d0 32        BNE  l21c2          
$2190: 32           JAM                 
$2191: d0 32        BNE  l21c5          
$2193: d0 32        BNE  l21c7          
$2195: 32           JAM                 
$2196: d0 32        BNE  l21ca          
$2198: 7f a1 83     RRA  $83a1,x        
$219b: 11 a6        ORA  ($a6),y        
$219d: 81 3c        STA  ($3c,x)        
$219f: a7 45        LAX  $45            
$21a1: a2 18        LDX  #$18           
$21a3: a7 48        LAX  $48            
$21a5: a4 80        LDY  $80            
$21a7: 11 00        ORA  ($00),y        
$21a9: a1 83        LDA  ($83,x)        
$21ab: 11 81        ORA  ($81),y        
$21ad: 00           BRK                 
$21ae: a6 3c        LDX  $3c            
$21b0: a7 43        LAX  $43            
$21b2: a2 18        LDX  #$18           
$21b4: a7 48        LAX  $48            
$21b6: a4 83        LDY  $83            
$21b8: 18           CLC                 
$21b9: 7f a1 83     RRA  $83a1,x        
$21bc: 11 a6        ORA  ($a6),y        
$21be: 81 3c        STA  ($3c,x)        
l21c0:
$21c0: a7 41        LAX  $41            
l21c2:
$21c2: a2 18        LDX  #$18           
$21c4: a7 48        LAX  $48            
$21c6: a4 80        LDY  $80            
$21c8: 11 00        ORA  ($00),y        
l21ca:
$21ca: a1 83        LDA  ($83,x)        
$21cc: 11 81        ORA  ($81),y        
$21ce: 00           BRK                 
$21cf: a6 3c        LDX  $3c            
$21d1: a7 43        LAX  $43            
$21d3: a2 18        LDX  #$18           
$21d5: a7 48        LAX  $48            
$21d7: a4 83        LDY  $83            
$21d9: 18           CLC                 
$21da: 7f a1 83     RRA  $83a1,x        
$21dd: 1c a6 81     NOP  $81a6,x        
$21e0: 43 a7        SRE  ($a7,x)        
$21e2: 48           PHA                 
$21e3: a2 18        LDX  #$18           
$21e5: a4 10        LDY  $10            
$21e7: a3 80        LAX  ($80,x)        
$21e9: 18           CLC                 
$21ea: 00           BRK                 
$21eb: a1 83        LDA  ($83,x)        
$21ed: 11 80        ORA  ($80),y        
$21ef: 1d 00 a6     ORA  $a600,x        
$21f2: 81 43        STA  ($43,x)        
$21f4: a7 45        LAX  $45            
$21f6: a2 18        LDX  #$18           
$21f8: a1 15        LDA  ($15,x)        
$21fa: a4 1d        LDY  $1d            
$21fc: 91 1b        STA  ($1b),y        
$21fe: a1 83        LDA  ($83,x)        
l2200:
$2200: 1a           NOP                 
$2201: a6 81        LDX  $81            
$2203: 41 a1        EOR  ($a1,x)        
$2205: 1d a2 83     ORA  $83a2,x        
$2208: 0e a4 80     ASL  $80a4          
$220b: 16 00        ASL  $00,x          
$220d: a1 81        LDA  ($81,x)        
$220f: 1b 91 16     SLO  $1691,y        
$2212: 83 0f        SAX  ($0f,x)        
$2214: a6 81        LDX  $81            
$2216: 43 a2        SRE  ($a2,x)        
$2218: 18           CLC                 
$2219: a1 1f        LDA  ($1f,x)        
$221b: a4 1b        LDY  $1b            
$221d: 91 1a        STA  ($1a),y        
$221f: a1 83        LDA  ($83,x)        
$2221: 19 a6 81     ORA  $81a6,y        
$2224: 40           RTI                 
$2225: a1 15        LDA  ($15,x)        
$2227: a2 18        LDX  #$18           
$2229: a4 10        LDY  $10            
l222b:
$222b: 95 0e        STA  $0e,x          
$222d: 81 1a        STA  ($1a,x)        
$222f: a6 40        LDX  $40            
$2231: a7 41        LAX  $41            
$2233: a2 18        LDX  #$18           
$2235: a1 15        LDA  ($15,x)        
$2237: a3 24        LAX  ($24,x)        
$2239: a1 80        LDA  ($80,x)        
$223b: 15 00        ORA  $00,x          
$223d: 83 17        SAX  ($17,x)        
l223f:
$223f: a6 81        LDX  $81            
$2241: 3e a7 43     ROL  $43a7,x        
$2244: a2 83        LDX  #$83           
$2246: 18           CLC                 
$2247: a4 80        LDY  $80            
$2249: 11 00        ORA  ($00),y        
$224b: a1 85        LDA  ($85,x)        
$224d: 13 a6        SLO  ($a6),y        
$224f: 81 3b        STA  ($3b,x)        
$2251: a7 41        LAX  $41            
$2253: a2 18        LDX  #$18           
$2255: a1 80        LDA  ($80,x)        
$2257: 11 00        ORA  ($00),y        
$2259: a4 81        LDY  $81            
$225b: 13 91        SLO  ($91),y        
$225d: 15 a1        ORA  $a1,x          
$225f: 83 16        SAX  ($16,x)        
$2261: a6 81        LDX  $81            
$2263: 3a           NOP                 
$2264: a7 3e        LAX  $3e            
$2266: a2 18        LDX  #$18           
$2268: a7 45        LAX  $45            
$226a: a4 80        LDY  $80            
$226c: 11 00        ORA  ($00),y        
$226e: a1 85        LDA  ($85,x)        
$2270: 0a           ASL                 
$2271: a7 81        LAX  $81            
$2273: 3a           NOP                 
$2274: a6 3e        LDX  $3e            
$2276: a2 18        LDX  #$18           
$2278: a6 43        LDX  $43            
$227a: a3 83        LAX  ($83,x)        
$227c: 24 a1        BIT  $a1            
$227e: 18           CLC                 
$227f: a6 81        LDX  $81            
$2281: 3c a7 40     NOP  $40a7,x        
$2284: a2 18        LDX  #$18           
$2286: a7 45        LAX  $45            
$2288: a4 80        LDY  $80            
$228a: 13 00        SLO  ($00),y        
$228c: a1 85        LDA  ($85,x)        
$228e: 0c a6 81     NOP  $81a6          
$2291: 37 a7        RLA  $a7,x          
$2293: 3c a2 18     NOP  $18a2,x        
$2296: a1 89        LDA  ($89,x)        
$2298: 0c 83 00     NOP  $0083          
$229b: d5 af        CMP  $af,x          
$229d: 80 3c        NOP  #$3c           
$229f: 3c 3c 3c     NOP  $3c3c,x        
$22a2: 3c 3c 3c     NOP  $3c3c,x        
$22a5: 3c 7f 83     NOP  $837f,x        
$22a8: 00           BRK                 
$22a9: b0 80        BCS  l222b          
$22ab: 3c 00 3c     NOP  $3c00,x        
$22ae: 00           BRK                 
$22af: 81 3c        STA  ($3c,x)        
$22b1: 91 3e        STA  ($3e),y        
$22b3: 91 41        STA  ($41),y        
$22b5: 80 43        NOP  #$43           
$22b7: 00           BRK                 
$22b8: 7f 8f 00     RRA  $008f,x        
$22bb: 83 00        SAX  ($00,x)        
$22bd: b0 80        BCS  l223f          
$22bf: 3c 00 3c     NOP  $3c00,x        
$22c2: 00           BRK                 
$22c3: 81 3c        STA  ($3c,x)        
$22c5: 91 3d        STA  ($3d),y        
$22c7: 91 41        STA  ($41),y        
$22c9: 80 48        NOP  #$48           
$22cb: 00           BRK                 
$22cc: 7f cb a9     RRA  $a9cb,x        
$22cf: 81 29        STA  ($29,x)        
$22d1: cb a0        AXS  #$a0           
$22d3: 80 29        NOP  #$29           
$22d5: 00           BRK                 
$22d6: 83 29        SAX  ($29,x)        
$22d8: 80 29        NOP  #$29           
$22da: 00           BRK                 
$22db: cb a9        AXS  #$a9           
$22dd: 81 29        STA  ($29,x)        
$22df: cb a0        AXS  #$a0           
$22e1: 83 29        SAX  ($29,x)        
$22e3: 80 29        NOP  #$29           
$22e5: 00           BRK                 
$22e6: cb a9        AXS  #$a9           
$22e8: 81 29        STA  ($29,x)        
$22ea: c8           INY                 
$22eb: a0 80        LDY  #$80           
$22ed: 2b 00        ANC  #$00           
$22ef: cd 85 2d     CMP  $2d85          
$22f2: cd a9 81     CMP  $81a9          
$22f5: 2d 2d cb     AND  $cb2d          
$22f8: a0 80        LDY  #$80           
$22fa: 2b 00        ANC  #$00           
$22fc: 2b 00        ANC  #$00           
$22fe: 83 2b        SAX  ($2b,x)        
$2300: 80 2b        NOP  #$2b           
$2302: 00           BRK                 
$2303: cb a9        AXS  #$a9           
$2305: 2b 00        ANC  #$00           
$2307: cb a0        AXS  #$a0           
$2309: 2b 00        ANC  #$00           
$230b: 83 2b        SAX  ($2b,x)        
$230d: c8           INY                 
$230e: 81 2d        STA  ($2d,x)        
$2310: c8           INY                 
$2311: a9 2d        LDA  #$2d           
$2313: ce a0 2e     DEC  $2ea0          
$2316: ce a9 2e     DEC  $2ea9          
$2319: d7 a0        DCP  $a0,x          
$231b: 89 30        NOP  #$30           
$231d: 83 00        SAX  ($00,x)        
$231f: 81 30        STA  ($30,x)        
$2321: 00           BRK                 
$2322: 30 00        BMI  l2324          
l2324:
$2324: 7f c4 a0     RRA  $a0c4,x        
$2327: 80 34        NOP  #$34           
$2329: 82 00        NOP  #$00           
$232b: c4 a9        CPY  $a9            
$232d: 81 34        STA  ($34,x)        
$232f: c4 a0        CPY  $a0            
$2331: 80 34        NOP  #$34           
$2333: 82 00        NOP  #$00           
$2335: c4 a9        CPY  $a9            
$2337: 81 34        STA  ($34,x)        
$2339: c4 a0        CPY  $a0            
$233b: 80 34        NOP  #$34           
$233d: 82 00        NOP  #$00           
$233f: c4 a9        CPY  $a9            
$2341: 81 34        STA  ($34,x)        
$2343: c4 a0        CPY  $a0            
$2345: 80 34        NOP  #$34           
$2347: 82 00        NOP  #$00           
$2349: c4 a9        CPY  $a9            
$234b: 80 34        NOP  #$34           
$234d: 00           BRK                 
$234e: c4 a0        CPY  $a0            
$2350: 34 82        NOP  $82,x          
$2352: 00           BRK                 
$2353: c4 a9        CPY  $a9            
$2355: 80 34        NOP  #$34           
$2357: 00           BRK                 
$2358: 34 00        NOP  $00,x          
$235a: d8           CLD                 
$235b: a0 35        LDY  #$35           
$235d: 82 00        NOP  #$00           
$235f: d8           CLD                 
$2360: a9 81        LDA  #$81           
$2362: 35 d8        AND  $d8,x          
$2364: a0 80        LDY  #$80           
$2366: 35 82        AND  $82,x          
$2368: 00           BRK                 
$2369: d8           CLD                 
$236a: a9 81        LDA  #$81           
$236c: 35 d8        AND  $d8,x          
$236e: a0 80        LDY  #$80           
$2370: 35 82        AND  $82,x          
$2372: 00           BRK                 
$2373: d8           CLD                 
$2374: a9 81        LDA  #$81           
$2376: 35 d8        AND  $d8,x          
$2378: a0 80        LDY  #$80           
$237a: 35 82        AND  $82,x          
$237c: 00           BRK                 
$237d: d8           CLD                 
$237e: a9 81        LDA  #$81           
$2380: 35 d8        AND  $d8,x          
$2382: a0 80        LDY  #$80           
$2384: 35 82        AND  $82,x          
$2386: 00           BRK                 
$2387: 81 35        STA  ($35,x)        
$2389: d8           CLD                 
$238a: a9 35        LDA  #$35           
$238c: d9 a0 80     CMP  $80a0,y        
$238f: 32           JAM                 
$2390: 82 00        NOP  #$00           
$2392: d9 a9 81     CMP  $81a9,y        
$2395: 32           JAM                 
$2396: d9 a0 80     CMP  $80a0,y        
$2399: 32           JAM                 
$239a: 82 00        NOP  #$00           
$239c: d9 a9 81     CMP  $81a9,y        
$239f: 32           JAM                 
$23a0: d9 a0 80     CMP  $80a0,y        
$23a3: 32           JAM                 
$23a4: 82 00        NOP  #$00           
$23a6: d9 a9 81     CMP  $81a9,y        
$23a9: 32           JAM                 
$23aa: d9 a0 80     CMP  $80a0,y        
$23ad: 32           JAM                 
$23ae: 82 00        NOP  #$00           
$23b0: d9 a9 81     CMP  $81a9,y        
$23b3: 32           JAM                 
$23b4: d9 a0 80     CMP  $80a0,y        
$23b7: 32           JAM                 
$23b8: 82 00        NOP  #$00           
$23ba: d9 a9 81     CMP  $81a9,y        
$23bd: 32           JAM                 
$23be: 32           JAM                 
$23bf: d8           CLD                 
$23c0: a0 80        LDY  #$80           
$23c2: 32           JAM                 
$23c3: 82 00        NOP  #$00           
$23c5: d8           CLD                 
$23c6: a9 81        LDA  #$81           
$23c8: 32           JAM                 
$23c9: d8           CLD                 
$23ca: a0 80        LDY  #$80           
$23cc: 32           JAM                 
$23cd: 82 00        NOP  #$00           
$23cf: d8           CLD                 
$23d0: a9 81        LDA  #$81           
$23d2: 32           JAM                 
$23d3: d8           CLD                 
$23d4: a0 80        LDY  #$80           
$23d6: 32           JAM                 
$23d7: 82 00        NOP  #$00           
$23d9: d8           CLD                 
$23da: a9 81        LDA  #$81           
$23dc: 32           JAM                 
$23dd: d8           CLD                 
$23de: a0 80        LDY  #$80           
$23e0: 32           JAM                 
$23e1: 82 00        NOP  #$00           
$23e3: d8           CLD                 
$23e4: a9 81        LDA  #$81           
$23e6: 32           JAM                 
$23e7: d8           CLD                 
$23e8: a0 80        LDY  #$80           
$23ea: 32           JAM                 
$23eb: 82 00        NOP  #$00           
$23ed: 81 35        STA  ($35,x)        
$23ef: d8           CLD                 
$23f0: a9 35        LDA  #$35           
$23f2: 7f a1 83     RRA  $83a1,x        
$23f5: 18           CLC                 
$23f6: a6 81        LDX  $81            
$23f8: 43 a7        SRE  ($a7,x)        
$23fa: 48           PHA                 
$23fb: a2 83        LDX  #$83           
$23fd: 18           CLC                 
$23fe: a4 80        LDY  $80            
$2400: 18           CLC                 
$2401: 00           BRK                 
$2402: a1 83        LDA  ($83,x)        
$2404: 11 80        ORA  ($80),y        
$2406: 1d 00 a6     ORA  $a600,x        
$2409: 81 43        STA  ($43,x)        
$240b: a7 45        LAX  $45            
$240d: a2 18        LDX  #$18           
$240f: a1 15        LDA  ($15,x)        
$2411: a4 18        LDY  $18            
$2413: 91 17        STA  ($17),y        
$2415: a1 83        LDA  ($83,x)        
$2417: 16 a6        ASL  $a6,x          
$2419: 81 41        STA  ($41,x)        
$241b: a7 46        LAX  $46            
$241d: a2 83        LDX  #$83           
$241f: 18           CLC                 
$2420: a4 80        LDY  $80            
l2422:
$2422: 16 00        ASL  $00,x          
$2424: a1 81        LDA  ($81,x)        
$2426: 1b 91 16     SLO  $1691,y        
$2429: 0f a7 41     SLO  $41a7          
$242c: a6 43        LDX  $43            
$242e: a2 18        LDX  #$18           
$2430: a1 1f        LDA  ($1f,x)        
$2432: a4 1b        LDY  $1b            
$2434: 91 1a        STA  ($1a),y        
$2436: a1 83        LDA  ($83,x)        
$2438: 19 a6 81     ORA  $81a6,y        
$243b: 40           RTI                 
$243c: a1 15        LDA  ($15,x)        
$243e: a2 18        LDX  #$18           
$2440: a4 10        LDY  $10            
$2442: 95 0e        STA  $0e,x          
$2444: 81 1a        STA  ($1a,x)        
$2446: a6 40        LDX  $40            
$2448: a7 41        LAX  $41            
$244a: a2 18        LDX  #$18           
$244c: a1 15        LDA  ($15,x)        
$244e: a3 24        LAX  ($24,x)        
$2450: a1 80        LDA  ($80,x)        
$2452: 15 00        ORA  $00,x          
$2454: 83 17        SAX  ($17,x)        
$2456: a6 81        LDX  $81            
$2458: 3e a7 43     ROL  $43a7,x        
$245b: a2 83        LDX  #$83           
$245d: 18           CLC                 
$245e: a4 80        LDY  $80            
$2460: 11 00        ORA  ($00),y        
$2462: a1 85        LDA  ($85,x)        
$2464: 13 a6        SLO  ($a6),y        
$2466: 81 3b        STA  ($3b,x)        
$2468: a7 41        LAX  $41            
$246a: a2 18        LDX  #$18           
$246c: a1 80        LDA  ($80,x)        
$246e: 11 00        ORA  ($00),y        
$2470: a4 81        LDY  $81            
$2472: 13 91        SLO  ($91),y        
$2474: 15 a1        ORA  $a1,x          
$2476: 83 16        SAX  ($16,x)        
$2478: a6 81        LDX  $81            
$247a: 3a           NOP                 
$247b: a7 3e        LAX  $3e            
$247d: a2 18        LDX  #$18           
$247f: a7 45        LAX  $45            
$2481: a4 80        LDY  $80            
$2483: 11 00        ORA  ($00),y        
$2485: a1 85        LDA  ($85,x)        
$2487: 0a           ASL                 
$2488: a7 81        LAX  $81            
$248a: 3a           NOP                 
$248b: a6 3e        LDX  $3e            
$248d: a2 18        LDX  #$18           
$248f: a6 43        LDX  $43            
$2491: a3 83        LAX  ($83,x)        
$2493: 24 a1        BIT  $a1            
$2495: 18           CLC                 
$2496: a6 81        LDX  $81            
$2498: 3c a7 40     NOP  $40a7,x        
$249b: a2 18        LDX  #$18           
$249d: a7 45        LAX  $45            
$249f: a4 80        LDY  $80            
$24a1: 13 00        SLO  ($00),y        
$24a3: a1 85        LDA  ($85,x)        
$24a5: 0c a6 81     NOP  $81a6          
$24a8: 37 a7        RLA  $a7,x          
$24aa: 3c a2 18     NOP  $18a2,x        
$24ad: a1 85        LDA  ($85,x)        
$24af: 0c 7f c3     NOP  $c37f          
$24b2: 84 7e        STY  $7e            
$24b4: 82 00        NOP  #$00           
$24b6: a8           TAY                 
$24b7: 80 39        NOP  #$39           
$24b9: c0 92        CPY  #$92           
$24bb: 3a           NOP                 
$24bc: 93 39        AHX  ($39),y        
$24be: c3 7e        DCP  ($7e,x)        
$24c0: 00           BRK                 
$24c1: 80 35        NOP  #$35           
$24c3: c0 92        CPY  #$92           
$24c5: 37 93        RLA  $93,x          
$24c7: 35 c3        AND  $c3,x          
$24c9: 81 7e        STA  ($7e,x)        
$24cb: 33 32        RLA  ($32),y        
$24cd: 00           BRK                 
$24ce: 80 30        NOP  #$30           
$24d0: c0 90        CPY  #$90           
$24d2: 32           JAM                 
$24d3: c1 81        CMP  ($81,x)        
$24d5: 35 93        AND  $93,x          
$24d7: 2e c3 84     ROL  $84c3          
$24da: 7e 80 00     ROR  $0080,x        
$24dd: 81 26        STA  ($26,x)        
$24df: c0 91        CPY  #$91           
$24e1: 27 c1        RLA  $c1            
$24e3: 2b 91        ANC  #$91           
$24e5: 2e 91 32     ROL  $3291          
$24e8: 93 31        AHX  ($31),y        
$24ea: c0 91        CPY  #$91           
$24ec: 32           JAM                 
$24ed: c1 80        CMP  ($80,x)        
$24ef: 34 82        NOP  $82,x          
$24f1: 00           BRK                 
$24f2: 81 39        STA  ($39,x)        
$24f4: 80 34        NOP  #$34           
$24f6: 92           JAM                 
$24f7: 35 81        AND  $81,x          
$24f9: 34 32        NOP  $32,x          
$24fb: 00           BRK                 
$24fc: 80 2d        NOP  #$2d           
$24fe: 00           BRK                 
$24ff: 37 c0        RLA  $c0,x          
$2501: 90 39        BCC  l253c          
$2503: c1 91        CMP  ($91,x)        
$2505: 3c 80 39     NOP  $3980,x        
$2508: c0 92        CPY  #$92           
$250a: 3b 90 3a     RLA  $3a90,y        
$250d: c1 90        CMP  ($90,x)        
$250f: 39 91 37     AND  $3791,y        
$2512: c3 83        DCP  ($83,x)        
$2514: 7e 85 00     ROR  $0085,x        
$2517: a8           TAY                 
$2518: 80 32        NOP  #$32           
$251a: 00           BRK                 
$251b: 34 c0        NOP  $c0,x          
$251d: 92           JAM                 
$251e: 35 91        AND  $91,x          
$2520: 34 c1        NOP  $c1,x          
$2522: 32           JAM                 
$2523: 00           BRK                 
$2524: 30 83        BMI  l24a9          
$2526: 32           JAM                 
$2527: c3 87        DCP  ($87,x)        
$2529: 7e 83 00     ROR  $0083,x        
$252c: 80 32        NOP  #$32           
$252e: 00           BRK                 
$252f: 34 00        NOP  $00,x          
$2531: 34 c0        NOP  $c0,x          
$2533: 92           JAM                 
$2534: 35 91        AND  $91,x          
$2536: 34 c1        NOP  $c1,x          
$2538: 80 32        NOP  #$32           
$253a: 82 00        NOP  #$00           
l253c:
$253c: 81 30        STA  ($30,x)        
$253e: 80 30        NOP  #$30           
$2540: c0 92        CPY  #$92           
$2542: 32           JAM                 
$2543: c3 87        DCP  ($87,x)        
$2545: 7e 81 00     ROR  $0081,x        
$2548: 80 2d        NOP  #$2d           
$254a: 00           BRK                 
$254b: 32           JAM                 
$254c: 00           BRK                 
$254d: 34 00        NOP  $00,x          
$254f: 34 c0        NOP  $c0,x          
$2551: 92           JAM                 
$2552: 35 81        AND  $81,x          
$2554: 34 c1        NOP  $c1,x          
$2556: 80 32        NOP  #$32           
$2558: 82 00        NOP  #$00           
$255a: 80 30        NOP  #$30           
$255c: 00           BRK                 
$255d: 30 c0        BMI  l251f          
$255f: 92           JAM                 
$2560: 32           JAM                 
$2561: 7f cb a9     RRA  $a9cb,x        
$2564: 81 29        STA  ($29,x)        
$2566: cb a0        AXS  #$a0           
$2568: 80 29        NOP  #$29           
$256a: 00           BRK                 
$256b: 83 29        SAX  ($29,x)        
$256d: 80 29        NOP  #$29           
$256f: 00           BRK                 
$2570: cb a9        AXS  #$a9           
$2572: 81 29        STA  ($29,x)        
$2574: cb a0        AXS  #$a0           
$2576: 83 29        SAX  ($29,x)        
$2578: 80 29        NOP  #$29           
$257a: 00           BRK                 
$257b: cb a9        AXS  #$a9           
$257d: 81 29        STA  ($29,x)        
$257f: c8           INY                 
$2580: a0 80        LDY  #$80           
$2582: 2b 00        ANC  #$00           
$2584: cd 85 2d     CMP  $2d85          
$2587: cd a9 81     CMP  $81a9          
$258a: 2d 2d cb     AND  $cb2d          
$258d: a0 80        LDY  #$80           
$258f: 2b 00        ANC  #$00           
$2591: 2b 00        ANC  #$00           
$2593: 83 2b        SAX  ($2b,x)        
$2595: 80 2b        NOP  #$2b           
$2597: 00           BRK                 
$2598: cb a9        AXS  #$a9           
$259a: 2b 00        ANC  #$00           
$259c: cb a0        AXS  #$a0           
$259e: 2b 00        ANC  #$00           
$25a0: 83 2b        SAX  ($2b,x)        
$25a2: c8           INY                 
$25a3: 81 2d        STA  ($2d,x)        
$25a5: c8           INY                 
l25a6:
$25a6: a9 2d        LDA  #$2d           
$25a8: cb a0        AXS  #$a0           
$25aa: 89 2b        NOP  #$2b           
$25ac: 7f da a0     RRA  $a0da,x        
$25af: 8f 29 83     SAX  $8329          
$25b2: 7e 8f 00     ROR  $008f,x        
$25b5: 00           BRK                 
$25b6: 8b 00        XAA  #$00           
$25b8: 7f a1 8f     RRA  $8fa1,x        
$25bb: 0e 7e 00     ASL  $007e          
$25be: 00           BRK                 
$25bf: 7f c3 89     RRA  $89c3,x        
$25c2: 7e e0 90     ROR  $90e0,x        
$25c5: 30 df        BMI  l25a6          
$25c7: 90 2d        BCC  l25f6          
$25c9: 90 2c        BCC  l25f7          
$25cb: 90 2b        BCC  l25f8          
$25cd: 90 29        BCC  l25f8          
$25cf: 90 26        BCC  l25f7          
$25d1: 90 24        BCC  l25f7          
$25d3: 90 21        BCC  l25f6          
$25d5: 90 20        BCC  l25f7          
$25d7: 90 1f        BCC  l25f8          
$25d9: 90 1d        BCC  l25f8          
$25db: 9f 1a 7e     AHX  $7e1a,y        
$25de: 8a           TXA                 
$25df: 7e 7f 8f     ROR  $8f7f,x        
$25e2: 00           BRK                 
$25e3: 00           BRK                 
$25e4: 00           BRK                 
$25e5: 00           BRK                 
$25e6: 00           BRK                 
$25e7: 00           BRK                 
$25e8: 00           BRK                 
l25e9:
$25e9: 87 00        SAX  $00            
$25eb: b2           JAM                 
$25ec: 85 22        STA  $22            
$25ee: db 9d 24     DCP  $249d,y        
$25f1: c3 8b        DCP  ($8b,x)        
$25f3: 7e 83 00     ROR  $0083,x        
l25f6:
$25f6: 81 21        STA  ($21,x)        
l25f8:
$25f8: 1d 80 24     ORA  $2480,x        
$25fb: dd 9a 26     CMP  $269a,x        
$25fe: 93 29        AHX  ($29),y        
$2600: c3 87        DCP  ($87,x)        
$2602: 7e dd 97     ROR  $97dd,x        
$2605: 2d 97 2b     AND  $2b97          
$2608: c3 7e        DCP  ($7e,x)        
$260a: 85 00        STA  $00            
$260c: 80 26        NOP  #$26           
$260e: 00           BRK                 
$260f: 81 29        STA  ($29,x)        
$2611: 91 2b        STA  ($2b),y        
$2613: 91 30        STA  ($30),y        
$2615: 80 29        NOP  #$29           
$2617: dd 92 2b     CMP  $2b92,x        
$261a: 95 29        STA  $29,x          
$261c: c3 89        DCP  ($89,x)        
$261e: 7e 83 00     ROR  $0083,x        
$2621: 80 26        NOP  #$26           
$2623: 00           BRK                 
$2624: 81 29        STA  ($29,x)        
$2626: 91 2b        STA  ($2b),y        
$2628: 91 35        STA  ($35),y        
$262a: b2           JAM                 
$262b: 80 32        NOP  #$32           
$262d: dd 90 34     CMP  $3490,x        
$2630: 7f 81 7e     RRA  $7e81,x        
$2633: c0 95        CPY  #$95           
$2635: 30 c3        BMI  l25fa          
$2637: 87 7e        SAX  $7e            
$2639: 80 35        NOP  #$35           
$263b: c0 92        CPY  #$92           
$263d: 37 97        RLA  $97,x          
$263f: 34 c1        NOP  $c1,x          
$2641: 80 39        NOP  #$39           
$2643: dc 90 3b     NOP  $3b90,x        
$2646: c1 91        CMP  ($91,x)        
$2648: 3c c1 91     NOP  $91c1,x        
$264b: 39 80 37     AND  $3780,y        
$264e: 00           BRK                 
$264f: 32           JAM                 
$2650: c0 90        CPY  #$90           
$2652: 34 91        NOP  $91,x          
$2654: 32           JAM                 
$2655: c1 91        CMP  ($91,x)        
$2657: 30 90        BMI  l25e9          
$2659: 2d 90 2b     AND  $2b90          
$265c: c3 97        DCP  ($97,x)        
$265e: 29 81        AND  #$81           
$2660: 00           BRK                 
$2661: 2e 91 2d     ROL  $2d91          
$2664: 91 30        STA  ($30),y        
$2666: b2           JAM                 
$2667: 29 c0        AND  #$c0           
$2669: 95 2b        STA  $2b,x          
$266b: c1 80        CMP  ($80,x)        
$266d: 2d 84 00     AND  $0084          
$2670: 80 29        NOP  #$29           
$2672: c0 90        CPY  #$90           
$2674: 2b c3        ANC  #$c3           
$2676: 83 7e        SAX  ($7e,x)        
l2678:
$2678: 80 2d        NOP  #$2d           
$267a: 82 00        NOP  #$00           
$267c: 80 24        NOP  #$24           
$267e: de 00 81     DEC  $8100,x        
$2681: 2b c2        ANC  #$c2           
$2683: 83 7e        SAX  ($7e,x)        
$2685: 80 2d        NOP  #$2d           
$2687: 82 00        NOP  #$00           
$2689: 80 22        NOP  #$22           
$268b: de 00 81     DEC  $8100,x        
$268e: 2b 90        ANC  #$90           
$2690: 2c 90 2b     BIT  $2b90          
$2693: 91 29        STA  ($29),y        
$2695: 80 2d        NOP  #$2d           
$2697: 00           BRK                 
$2698: 30 de        BMI  l2678          
$269a: 00           BRK                 
$269b: 1d de 00     ORA  $00de,x        
$269e: 81 2b        STA  ($2b,x)        
$26a0: c3 83        DCP  ($83,x)        
$26a2: 7e 80 30     ROR  $3080,x        
$26a5: 00           BRK                 
$26a6: 32           JAM                 
$26a7: de 00 26     DEC  $2600,x        
$26aa: de 00 85     DEC  $8500,x        
$26ad: 2d 7f a1     AND  $a17f          
$26b0: 83 11        SAX  ($11,x)        
$26b2: a6 81        LDX  $81            
$26b4: 3c a7 45     NOP  $45a7,x        
$26b7: b3 18        LAX  ($18),y        
$26b9: a7 48        LAX  $48            
$26bb: a4 80        LDY  $80            
$26bd: 11 00        ORA  ($00),y        
$26bf: a1 83        LDA  ($83,x)        
$26c1: 11 81        ORA  ($81),y        
$26c3: 00           BRK                 
$26c4: a6 3c        LDX  $3c            
$26c6: a7 43        LAX  $43            
$26c8: b3 18        LAX  ($18),y        
$26ca: a7 48        LAX  $48            
$26cc: a4 83        LDY  $83            
$26ce: 15 a1        ORA  $a1,x          
$26d0: 1a           NOP                 
$26d1: a6 81        LDX  $81            
$26d3: 39 a7 41     AND  $41a7,y        
$26d6: b3 18        LAX  ($18),y        
$26d8: a7 48        LAX  $48            
$26da: a4 80        LDY  $80            
$26dc: 1a           NOP                 
$26dd: 00           BRK                 
$26de: a1 83        LDA  ($83,x)        
$26e0: 1a           NOP                 
$26e1: 81 00        STA  ($00,x)        
$26e3: a6 39        LDX  $39            
$26e5: a7 3e        LAX  $3e            
$26e7: b3 18        LAX  ($18),y        
$26e9: a7 48        LAX  $48            
$26eb: a4 1f        LDY  $1f            
$26ed: 90 13        BCC  l2702          
$26ef: 00           BRK                 
$26f0: a1 83        LDA  ($83,x)        
$26f2: 15 a6        ORA  $a6,x          
$26f4: 81 3c        STA  ($3c,x)        
$26f6: a7 40        LAX  $40            
$26f8: b3 18        LAX  ($18),y        
$26fa: a7 48        LAX  $48            
$26fc: a4 80        LDY  $80            
$26fe: 15 00        ORA  $00,x          
$2700: a1 83        LDA  ($83,x)        
l2702:
$2702: 15 81        ORA  $81,x          
$2704: 00           BRK                 
$2705: a6 34        LDX  $34            
$2707: a7 3c        LAX  $3c            
$2709: b3 18        LAX  ($18),y        
$270b: a7 45        LAX  $45            
$270d: a3 24        LAX  ($24,x)        
$270f: a1 15        LDA  ($15,x)        
$2711: 83 16        SAX  ($16,x)        
$2713: a6 81        LDX  $81            
$2715: 3a           NOP                 
$2716: a7 41        LAX  $41            
$2718: b3 18        LAX  ($18),y        
$271a: a7 4a        LAX  $4a            
$271c: a4 16        LDY  $16            
$271e: a1 83        LDA  ($83,x)        
$2720: 0a           ASL                 
$2721: 81 00        STA  ($00,x)        
$2723: a6 35        LDX  $35            
$2725: a7 3e        LAX  $3e            
$2727: b3 18        LAX  ($18),y        
$2729: a7 46        LAX  $46            
$272b: a4 18        LDY  $18            
$272d: 91 1a        STA  ($1a),y        
$272f: 7f 80 34     RRA  $3480,x        
$2732: 00           BRK                 
$2733: 35 de        AND  $de,x          
$2735: 00           BRK                 
$2736: 29 de        AND  #$de           
$2738: 00           BRK                 
$2739: 81 30        STA  ($30,x)        
$273b: c2 83        NOP  #$83           
l273d:
$273d: 7e 80 37     ROR  $3780,x        
$2740: 90 39        BCC  l277b          
$2742: 3c de 00     NOP  $00de,x        
$2745: 2d de 00     AND  $00de          
$2748: 81 34        STA  ($34,x)        
$274a: c2 83        NOP  #$83           
$274c: 7e 80 3e     ROR  $3e80,x        
$274f: 00           BRK                 
$2750: 39 de 00     AND  $00de,y        
$2753: 43 de        SRE  ($de,x)        
$2755: 00           BRK                 
$2756: b2           JAM                 
$2757: 3b dc 91     RLA  $91dc,y        
$275a: 3c c3 82     NOP  $82c3,x        
$275d: 7e 81 3a     ROR  $3a81,x        
$2760: c0 91        CPY  #$91           
$2762: 39 c1 91     AND  $91c1,y        
$2765: 37 dc        RLA  $dc,x          
$2767: 91 35        STA  ($35),y        
$2769: 91 37        STA  ($37),y        
$276b: c1 39        CMP  ($39,x)        
$276d: 80 39        NOP  #$39           
$276f: c0 90        CPY  #$90           
$2771: 3a           NOP                 
$2772: 91 39        STA  ($39),y        
$2774: c1 91        CMP  ($91,x)        
l2776:
$2776: 32           JAM                 
$2777: 91 39        STA  ($39),y        
$2779: 91 35        STA  ($35),y        
l277b:
$277b: 91 2e        STA  ($2e),y        
$277d: 91 37        STA  ($37),y        
$277f: 80 32        NOP  #$32           
$2781: c0 92        CPY  #$92           
$2783: 34 c3        NOP  $c3,x          
$2785: 81 7e        STA  ($7e,x)        
$2787: 90 33        BCC  l27bc          
$2789: 90 32        BCC  l27bd          
$278b: 91 30        STA  ($30),y        
$278d: c3 83        DCP  ($83,x)        
$278f: 7e 00 80     ROR  $8000,x        
$2792: 32           JAM                 
$2793: c0 90        CPY  #$90           
$2795: 34 91        NOP  $91,x          
$2797: 32           JAM                 
$2798: c1 30        CMP  ($30,x)        
$279a: 80 37        NOP  #$37           
$279c: 00           BRK                 
$279d: 34 c0        NOP  $c0,x          
$279f: 90 35        BCC  l27d6          
$27a1: 91 34        STA  ($34),y        
$27a3: c0 95        CPY  #$95           
$27a5: 32           JAM                 
$27a6: c0 91        CPY  #$91           
$27a8: 30 93        BMI  l273d          
$27aa: 32           JAM                 
$27ab: c3 87        DCP  ($87,x)        
$27ad: 7e 85 00     ROR  $0085,x        
$27b0: a8           TAY                 
$27b1: 80 2e        NOP  #$2e           
$27b3: 00           BRK                 
$27b4: 30 c0        BMI  l2776          
$27b6: 92           JAM                 
$27b7: 32           JAM                 
$27b8: 93 30        AHX  ($30),y        
$27ba: 7f           RRA  ???              ; Truncated